
r5emu:     file format elf64-x86-64

Program Header:
    PHDR off    0x0000000000000040 vaddr 0x0000000000000040 paddr 0x0000000000000040 align 2**3
         filesz 0x00000000000002d8 memsz 0x00000000000002d8 flags r--
  INTERP off    0x0000000000000318 vaddr 0x0000000000000318 paddr 0x0000000000000318 align 2**0
         filesz 0x000000000000001c memsz 0x000000000000001c flags r--
    LOAD off    0x0000000000000000 vaddr 0x0000000000000000 paddr 0x0000000000000000 align 2**12
         filesz 0x0000000000000f90 memsz 0x0000000000000f90 flags r--
    LOAD off    0x0000000000001000 vaddr 0x0000000000001000 paddr 0x0000000000001000 align 2**12
         filesz 0x0000000000002885 memsz 0x0000000000002885 flags r-x
    LOAD off    0x0000000000004000 vaddr 0x0000000000004000 paddr 0x0000000000004000 align 2**12
         filesz 0x00000000000017f4 memsz 0x00000000000017f4 flags r--
    LOAD off    0x00000000000059f0 vaddr 0x00000000000069f0 paddr 0x00000000000069f0 align 2**12
         filesz 0x0000000000000620 memsz 0x0000000000000750 flags rw-
 DYNAMIC off    0x0000000000005d20 vaddr 0x0000000000006d20 paddr 0x0000000000006d20 align 2**3
         filesz 0x00000000000001f0 memsz 0x00000000000001f0 flags rw-
    NOTE off    0x0000000000000338 vaddr 0x0000000000000338 paddr 0x0000000000000338 align 2**3
         filesz 0x0000000000000030 memsz 0x0000000000000030 flags r--
    NOTE off    0x0000000000000368 vaddr 0x0000000000000368 paddr 0x0000000000000368 align 2**2
         filesz 0x0000000000000044 memsz 0x0000000000000044 flags r--
0x6474e553 off    0x0000000000000338 vaddr 0x0000000000000338 paddr 0x0000000000000338 align 2**3
         filesz 0x0000000000000030 memsz 0x0000000000000030 flags r--
EH_FRAME off    0x0000000000004f40 vaddr 0x0000000000004f40 paddr 0x0000000000004f40 align 2**2
         filesz 0x000000000000015c memsz 0x000000000000015c flags r--
   STACK off    0x0000000000000000 vaddr 0x0000000000000000 paddr 0x0000000000000000 align 2**4
         filesz 0x0000000000000000 memsz 0x0000000000000000 flags rw-
   RELRO off    0x00000000000059f0 vaddr 0x00000000000069f0 paddr 0x00000000000069f0 align 2**0
         filesz 0x0000000000000610 memsz 0x0000000000000610 flags r--

Dynamic Section:
  NEEDED               libc.so.6
  INIT                 0x0000000000001000
  FINI                 0x0000000000003878
  INIT_ARRAY           0x00000000000069f0
  INIT_ARRAYSZ         0x0000000000000008
  FINI_ARRAY           0x00000000000069f8
  FINI_ARRAYSZ         0x0000000000000008
  GNU_HASH             0x00000000000003b0
  STRTAB               0x0000000000000648
  SYMTAB               0x00000000000003d8
  STRSZ                0x000000000000015d
  SYMENT               0x0000000000000018
  DEBUG                0x0000000000000000
  PLTGOT               0x0000000000006f10
  PLTRELSZ             0x00000000000001c8
  PLTREL               0x0000000000000007
  JMPREL               0x0000000000000dc8
  RELA                 0x0000000000000840
  RELASZ               0x0000000000000588
  RELAENT              0x0000000000000018
  FLAGS                0x0000000000000008
  FLAGS_1              0x0000000008000001
  VERNEED              0x00000000000007e0
  VERNEEDNUM           0x0000000000000001
  VERSYM               0x00000000000007a6
  RELACOUNT            0x0000000000000035

Version References:
  required from libc.so.6:
    0x09691974 0x00 06 GLIBC_2.3.4
    0x0d696917 0x00 05 GLIBC_2.7
    0x0d696914 0x00 04 GLIBC_2.4
    0x069691b4 0x00 03 GLIBC_2.34
    0x09691a75 0x00 02 GLIBC_2.2.5

Sections:
Idx Name          Size      VMA               LMA               File off  Algn
  0 .interp       0000001c  0000000000000318  0000000000000318  00000318  2**0
                  CONTENTS, ALLOC, LOAD, READONLY, DATA
  1 .note.gnu.property 00000030  0000000000000338  0000000000000338  00000338  2**3
                  CONTENTS, ALLOC, LOAD, READONLY, DATA
  2 .note.gnu.build-id 00000024  0000000000000368  0000000000000368  00000368  2**2
                  CONTENTS, ALLOC, LOAD, READONLY, DATA
  3 .note.ABI-tag 00000020  000000000000038c  000000000000038c  0000038c  2**2
                  CONTENTS, ALLOC, LOAD, READONLY, DATA
  4 .gnu.hash     00000028  00000000000003b0  00000000000003b0  000003b0  2**3
                  CONTENTS, ALLOC, LOAD, READONLY, DATA
  5 .dynsym       00000270  00000000000003d8  00000000000003d8  000003d8  2**3
                  CONTENTS, ALLOC, LOAD, READONLY, DATA
  6 .dynstr       0000015d  0000000000000648  0000000000000648  00000648  2**0
                  CONTENTS, ALLOC, LOAD, READONLY, DATA
  7 .gnu.version  00000034  00000000000007a6  00000000000007a6  000007a6  2**1
                  CONTENTS, ALLOC, LOAD, READONLY, DATA
  8 .gnu.version_r 00000060  00000000000007e0  00000000000007e0  000007e0  2**3
                  CONTENTS, ALLOC, LOAD, READONLY, DATA
  9 .rela.dyn     00000588  0000000000000840  0000000000000840  00000840  2**3
                  CONTENTS, ALLOC, LOAD, READONLY, DATA
 10 .rela.plt     000001c8  0000000000000dc8  0000000000000dc8  00000dc8  2**3
                  CONTENTS, ALLOC, LOAD, READONLY, DATA
 11 .init         0000001b  0000000000001000  0000000000001000  00001000  2**2
                  CONTENTS, ALLOC, LOAD, READONLY, CODE
 12 .plt          00000140  0000000000001020  0000000000001020  00001020  2**4
                  CONTENTS, ALLOC, LOAD, READONLY, CODE
 13 .plt.got      00000010  0000000000001160  0000000000001160  00001160  2**4
                  CONTENTS, ALLOC, LOAD, READONLY, CODE
 14 .plt.sec      00000130  0000000000001170  0000000000001170  00001170  2**4
                  CONTENTS, ALLOC, LOAD, READONLY, CODE
 15 .text         000025d6  00000000000012a0  00000000000012a0  000012a0  2**4
                  CONTENTS, ALLOC, LOAD, READONLY, CODE
 16 .fini         0000000d  0000000000003878  0000000000003878  00003878  2**2
                  CONTENTS, ALLOC, LOAD, READONLY, CODE
 17 .rodata       00000f40  0000000000004000  0000000000004000  00004000  2**4
                  CONTENTS, ALLOC, LOAD, READONLY, DATA
 18 .eh_frame_hdr 0000015c  0000000000004f40  0000000000004f40  00004f40  2**2
                  CONTENTS, ALLOC, LOAD, READONLY, DATA
 19 .eh_frame     00000754  00000000000050a0  00000000000050a0  000050a0  2**3
                  CONTENTS, ALLOC, LOAD, READONLY, DATA
 20 .init_array   00000008  00000000000069f0  00000000000069f0  000059f0  2**3
                  CONTENTS, ALLOC, LOAD, DATA
 21 .fini_array   00000008  00000000000069f8  00000000000069f8  000059f8  2**3
                  CONTENTS, ALLOC, LOAD, DATA
 22 .data.rel.ro  00000320  0000000000006a00  0000000000006a00  00005a00  2**5
                  CONTENTS, ALLOC, LOAD, DATA
 23 .dynamic      000001f0  0000000000006d20  0000000000006d20  00005d20  2**3
                  CONTENTS, ALLOC, LOAD, DATA
 24 .got          000000d8  0000000000006f10  0000000000006f10  00005f10  2**3
                  CONTENTS, ALLOC, LOAD, DATA
 25 .data         00000010  0000000000007000  0000000000007000  00006000  2**3
                  CONTENTS, ALLOC, LOAD, DATA
 26 .bss          00000120  0000000000007020  0000000000007020  00006010  2**5
                  ALLOC
 27 .comment      0000002b  0000000000000000  0000000000000000  00006010  2**0
                  CONTENTS, READONLY
SYMBOL TABLE:
0000000000000000 l    df *ABS*	0000000000000000              Scrt1.o
000000000000038c l     O .note.ABI-tag	0000000000000020              __abi_tag
0000000000000000 l    df *ABS*	0000000000000000              main.c
0000000000004d72 l     O .rodata	0000000000000005              __PRETTY_FUNCTION__.1
0000000000004d60 l     O .rodata	0000000000000012              __PRETTY_FUNCTION__.0
0000000000000000 l    df *ABS*	0000000000000000              crtstuff.c
0000000000001680 l     F .text	0000000000000000              deregister_tm_clones
00000000000016b0 l     F .text	0000000000000000              register_tm_clones
00000000000016f0 l     F .text	0000000000000000              __do_global_dtors_aux
0000000000007028 l     O .bss	0000000000000001              completed.0
00000000000069f8 l     O .fini_array	0000000000000000              __do_global_dtors_aux_fini_array_entry
0000000000001730 l     F .text	0000000000000000              frame_dummy
00000000000069f0 l     O .init_array	0000000000000000              __frame_dummy_init_array_entry
0000000000000000 l    df *ABS*	0000000000000000              cache.c
0000000000004ce0 l     O .rodata	000000000000000f              __PRETTY_FUNCTION__.0
0000000000000000 l    df *ABS*	0000000000000000              control_flow.c
0000000000001870 l     F .text	000000000000002d              err
0000000000000000 l    df *ABS*	0000000000000000              instructions.c
0000000000004d40 l     O .rodata	0000000000000013              __PRETTY_FUNCTION__.0
0000000000000000 l    df *ABS*	0000000000000000              memory.c
00000000000020e0 l     F .text	000000000000002d              err
0000000000004dc0 l     O .rodata	000000000000000d              __PRETTY_FUNCTION__.0
0000000000000000 l    df *ABS*	0000000000000000              processor.c
0000000000004dd0 l     O .rodata	0000000000000010              __PRETTY_FUNCTION__.0
0000000000000000 l    df *ABS*	0000000000000000              registers.c
00000000000028c0 l     F .text	000000000000001c              err
0000000000004ea0 l     O .rodata	0000000000000019              __PRETTY_FUNCTION__.0
0000000000000000 l    df *ABS*	0000000000000000              utilities.c
0000000000004f32 l     O .rodata	0000000000000006              __PRETTY_FUNCTION__.3
0000000000004f20 l     O .rodata	0000000000000012              __PRETTY_FUNCTION__.2
0000000000007040 l     O .bss	0000000000000100              prev_rs.1
0000000000004f00 l     O .rodata	000000000000001a              __PRETTY_FUNCTION__.0
0000000000000000 l    df *ABS*	0000000000000000              crtstuff.c
00000000000057f0 l     O .eh_frame	0000000000000000              __FRAME_END__
0000000000000000 l    df *ABS*	0000000000000000              
0000000000006d20 l     O .dynamic	0000000000000000              _DYNAMIC
0000000000004f40 l       .eh_frame_hdr	0000000000000000              __GNU_EH_FRAME_HDR
0000000000006f10 l     O .got	0000000000000000              _GLOBAL_OFFSET_TABLE_
0000000000002f50 g     F .text	000000000000001e              free_lines
0000000000000000       F *UND*	0000000000000000              free@GLIBC_2.2.5
0000000000000000       F *UND*	0000000000000000              putchar@GLIBC_2.2.5
0000000000002950 g     F .text	00000000000004b4              processor_emulate_regops
0000000000000000       F *UND*	0000000000000000              __libc_start_main@GLIBC_2.34
0000000000000000  w      *UND*	0000000000000000              _ITM_deregisterTMCloneTable
0000000000007000  w      .data	0000000000000000              data_start
0000000000000000       F *UND*	0000000000000000              __read_chk@GLIBC_2.4
0000000000001850 g     F .text	0000000000000019              cache_free
0000000000000000       F *UND*	0000000000000000              puts@GLIBC_2.2.5
00000000000034c0 g     F .text	0000000000000094              processor_registers_printall
0000000000001770 g     F .text	000000000000000d              cache_statistics
0000000000002f70 g     F .text	000000000000003e              instr_format
0000000000007010 g       .data	0000000000000000              _edata
0000000000002190 g     F .text	0000000000000019              memory_free
0000000000003060 g     F .text	000000000000016c              instruction_print
0000000000003878 g     F .fini	0000000000000000              .hidden _fini
0000000000000000       F *UND*	0000000000000000              __stack_chk_fail@GLIBC_2.4
00000000000018a0 g     F .text	0000000000000357              processor_emulate_cntlflowops
0000000000006a00 g     O .data.rel.ro	0000000000000320              imeta
0000000000000000       F *UND*	0000000000000000              strchr@GLIBC_2.2.5
0000000000003710 g     F .text	0000000000000166              processor_print_exception
0000000000000000       F *UND*	0000000000000000              __assert_fail@GLIBC_2.2.5
0000000000001c00 g     F .text	00000000000004bf              instructions_parse
0000000000000000       F *UND*	0000000000000000              fputs@GLIBC_2.2.5
0000000000002110 g     F .text	0000000000000080              memory_alloc
0000000000002930 g     F .text	000000000000000b              registers_getpc
0000000000000000       F *UND*	0000000000000000              strtok_r@GLIBC_2.2.5
0000000000000000       F *UND*	0000000000000000              calloc@GLIBC_2.2.5
0000000000007000 g       .data	0000000000000000              __data_start
0000000000000000       F *UND*	0000000000000000              strcmp@GLIBC_2.2.5
0000000000003410 g     F .text	00000000000000ac              processor_registers_print
0000000000000000  w      *UND*	0000000000000000              __gmon_start__
0000000000007008 g     O .data	0000000000000000              .hidden __dso_handle
0000000000004000 g     O .rodata	0000000000000004              _IO_stdin_used
0000000000002fb0 g     F .text	000000000000003b              instr_name
00000000000027f0 g     F .text	0000000000000090              processor_alloc
0000000000003610 g     F .text	00000000000000fa              processor_cache_print
0000000000000000       F *UND*	0000000000000000              malloc@GLIBC_2.2.5
0000000000002880 g     F .text	000000000000003b              processor_free
0000000000000000       F *UND*	0000000000000000              __isoc99_sscanf@GLIBC_2.7
0000000000007140 g       .bss	0000000000000000              _end
0000000000001650 g     F .text	0000000000000026              _start
0000000000002920 g     F .text	000000000000000b              registers_setreg
0000000000002900 g     F .text	0000000000000009              registers_free
00000000000021b0 g     F .text	0000000000000009              memory_getsize
0000000000007020 g       .bss	0000000000000000              __bss_start
0000000000002910 g     F .text	000000000000000b              registers_getreg
00000000000021c0 g     F .text	0000000000000038              memory_getbyte
0000000000001780 g     F .text	00000000000000c8              cache_allocate
00000000000012a0 g     F .text	00000000000003a7              main
0000000000000000       F *UND*	0000000000000000              __printf_chk@GLIBC_2.3.4
00000000000020c0 g     F .text	000000000000001f              instructions_free
00000000000026c0 g     F .text	000000000000012c              processor_emulate
00000000000031d0 g     F .text	0000000000000236              stringify_program
00000000000028e0 g     F .text	0000000000000020              registers_alloc
0000000000001740 g     F .text	000000000000002e              cache_access
0000000000002200 g     F .text	00000000000004b3              processor_emulate_memops
0000000000002ff0 g     F .text	0000000000000062              instr_num
0000000000003560 g     F .text	00000000000000a5              processor_memory_print
0000000000000000       F *UND*	0000000000000000              exit@GLIBC_2.2.5
0000000000000000       F *UND*	0000000000000000              fwrite@GLIBC_2.2.5
0000000000007010 g     O .data	0000000000000000              .hidden __TMC_END__
0000000000000000       F *UND*	0000000000000000              __fprintf_chk@GLIBC_2.3.4
0000000000000000  w      *UND*	0000000000000000              _ITM_registerTMCloneTable
0000000000002e10 g     F .text	0000000000000140              lines
0000000000002940 g     F .text	000000000000000c              registers_setpc
0000000000000000       F *UND*	0000000000000000              strdup@GLIBC_2.2.5
0000000000000000  w    F *UND*	0000000000000000              __cxa_finalize@GLIBC_2.2.5
0000000000001000 g     F .init	0000000000000000              .hidden _init
0000000000007020 g     O .bss	0000000000000008              stderr@GLIBC_2.2.5
0000000000000000       F *UND*	0000000000000000              __sprintf_chk@GLIBC_2.3.4


DYNAMIC SYMBOL TABLE:
0000000000000000      DF *UND*	0000000000000000 (GLIBC_2.2.5) free
0000000000000000      DF *UND*	0000000000000000 (GLIBC_2.2.5) putchar
0000000000000000      DF *UND*	0000000000000000 (GLIBC_2.34) __libc_start_main
0000000000000000  w   D  *UND*	0000000000000000  Base        _ITM_deregisterTMCloneTable
0000000000000000      DF *UND*	0000000000000000 (GLIBC_2.4)  __read_chk
0000000000000000      DF *UND*	0000000000000000 (GLIBC_2.2.5) puts
0000000000000000      DF *UND*	0000000000000000 (GLIBC_2.4)  __stack_chk_fail
0000000000000000      DF *UND*	0000000000000000 (GLIBC_2.2.5) strchr
0000000000000000      DF *UND*	0000000000000000 (GLIBC_2.2.5) __assert_fail
0000000000000000      DF *UND*	0000000000000000 (GLIBC_2.2.5) fputs
0000000000000000      DF *UND*	0000000000000000 (GLIBC_2.2.5) strtok_r
0000000000000000      DF *UND*	0000000000000000 (GLIBC_2.2.5) calloc
0000000000000000      DF *UND*	0000000000000000 (GLIBC_2.2.5) strcmp
0000000000000000  w   D  *UND*	0000000000000000  Base        __gmon_start__
0000000000000000      DF *UND*	0000000000000000 (GLIBC_2.2.5) malloc
0000000000000000      DF *UND*	0000000000000000 (GLIBC_2.7)  __isoc99_sscanf
0000000000000000      DF *UND*	0000000000000000 (GLIBC_2.3.4) __printf_chk
0000000000000000      DF *UND*	0000000000000000 (GLIBC_2.2.5) exit
0000000000000000      DF *UND*	0000000000000000 (GLIBC_2.2.5) fwrite
0000000000000000      DF *UND*	0000000000000000 (GLIBC_2.3.4) __fprintf_chk
0000000000000000  w   D  *UND*	0000000000000000  Base        _ITM_registerTMCloneTable
0000000000000000      DF *UND*	0000000000000000 (GLIBC_2.2.5) strdup
0000000000000000      DF *UND*	0000000000000000 (GLIBC_2.3.4) __sprintf_chk
0000000000000000  w   DF *UND*	0000000000000000 (GLIBC_2.2.5) __cxa_finalize
0000000000007020 g    DO .bss	0000000000000008 (GLIBC_2.2.5) stderr


Contents of section .interp:
 0318 2f6c6962 36342f6c 642d6c69 6e75782d  /lib64/ld-linux-
 0328 7838362d 36342e73 6f2e3200           x86-64.so.2.    
Contents of section .note.gnu.property:
 0338 04000000 20000000 05000000 474e5500  .... .......GNU.
 0348 020000c0 04000000 03000000 00000000  ................
 0358 028000c0 04000000 01000000 00000000  ................
Contents of section .note.gnu.build-id:
 0368 04000000 14000000 03000000 474e5500  ............GNU.
 0378 6b413563 020d0e55 3e596361 56599208  kA5c...U>YcaVY..
 0388 7d1101ae                             }...            
Contents of section .note.ABI-tag:
 038c 04000000 10000000 01000000 474e5500  ............GNU.
 039c 00000000 03000000 02000000 00000000  ................
Contents of section .gnu.hash:
 03b0 02000000 18000000 01000000 06000000  ................
 03c0 00018100 00000002 18000000 19000000  ................
 03d0 d165ce6d 39f28b1c                    .e.m9...        
Contents of section .dynsym:
 03d8 00000000 00000000 00000000 00000000  ................
 03e8 00000000 00000000 1f000000 12000000  ................
 03f8 00000000 00000000 00000000 00000000  ................
 0408 3e000000 12000000 00000000 00000000  >...............
 0418 00000000 00000000 69000000 12000000  ........i.......
 0428 00000000 00000000 00000000 00000000  ................
 0438 18010000 20000000 00000000 00000000  .... ...........
 0448 00000000 00000000 82000000 12000000  ................
 0458 00000000 00000000 00000000 00000000  ................
 0468 ab000000 12000000 00000000 00000000  ................
 0478 00000000 00000000 01000000 12000000  ................
 0488 00000000 00000000 00000000 00000000  ................
 0498 9c000000 12000000 00000000 00000000  ................
 04a8 00000000 00000000 29000000 12000000  ........).......
 04b8 00000000 00000000 00000000 00000000  ................
 04c8 aa000000 12000000 00000000 00000000  ................
 04d8 00000000 00000000 ce000000 12000000  ................
 04e8 00000000 00000000 00000000 00000000  ................
 04f8 a3000000 12000000 00000000 00000000  ................
 0508 00000000 00000000 c7000000 12000000  ................
 0518 00000000 00000000 00000000 00000000  ................
 0528 34010000 20000000 00000000 00000000  4... ...........
 0538 00000000 00000000 62000000 12000000  ........b.......
 0548 00000000 00000000 00000000 00000000  ................
 0558 b0000000 12000000 00000000 00000000  ................
 0568 00000000 00000000 12000000 12000000  ................
 0578 00000000 00000000 00000000 00000000  ................
 0588 24000000 12000000 00000000 00000000  $...............
 0598 00000000 00000000 c0000000 12000000  ................
 05a8 00000000 00000000 00000000 00000000  ................
 05b8 54000000 12000000 00000000 00000000  T...............
 05c8 00000000 00000000 43010000 20000000  ........C... ...
 05d8 00000000 00000000 00000000 00000000  ................
 05e8 37000000 12000000 00000000 00000000  7...............
 05f8 00000000 00000000 46000000 12000000  ........F.......
 0608 00000000 00000000 00000000 00000000  ................
 0618 8d000000 22000000 00000000 00000000  ...."...........
 0628 00000000 00000000 7b000000 11001b00  ........{.......
 0638 20700000 00000000 08000000 00000000   p..............
Contents of section .dynstr:
 0648 005f5f73 7461636b 5f63686b 5f666169  .__stack_chk_fai
 0658 6c005f5f 7072696e 74665f63 686b0066  l.__printf_chk.f
 0668 72656500 65786974 005f5f61 73736572  ree.exit.__asser
 0678 745f6661 696c0073 74726475 70007075  t_fail.strdup.pu
 0688 74636861 72005f5f 73707269 6e74665f  tchar.__sprintf_
 0698 63686b00 5f5f6670 72696e74 665f6368  chk.__fprintf_ch
 06a8 6b006d61 6c6c6f63 005f5f6c 6962635f  k.malloc.__libc_
 06b8 73746172 745f6d61 696e0073 74646572  start_main.stder
 06c8 72005f5f 72656164 5f63686b 005f5f63  r.__read_chk.__c
 06d8 78615f66 696e616c 697a6500 73747263  xa_finalize.strc
 06e8 68720063 616c6c6f 63006670 75747300  hr.calloc.fputs.
 06f8 5f5f6973 6f633939 5f737363 616e6600  __isoc99_sscanf.
 0708 66777269 74650073 7472636d 70007374  fwrite.strcmp.st
 0718 72746f6b 5f72006c 6962632e 736f2e36  rtok_r.libc.so.6
 0728 00474c49 42435f32 2e332e34 00474c49  .GLIBC_2.3.4.GLI
 0738 42435f32 2e370047 4c494243 5f322e34  BC_2.7.GLIBC_2.4
 0748 00474c49 42435f32 2e333400 474c4942  .GLIBC_2.34.GLIB
 0758 435f322e 322e3500 5f49544d 5f646572  C_2.2.5._ITM_der
 0768 65676973 74657254 4d436c6f 6e655461  egisterTMCloneTa
 0778 626c6500 5f5f676d 6f6e5f73 74617274  ble.__gmon_start
 0788 5f5f005f 49544d5f 72656769 73746572  __._ITM_register
 0798 544d436c 6f6e6554 61626c65 00        TMCloneTable.   
Contents of section .gnu.version:
 07a6 00000200 02000300 01000400 02000400  ................
 07b6 02000200 02000200 02000200 01000200  ................
 07c6 05000600 02000200 06000100 02000600  ................
 07d6 02000200                             ....            
Contents of section .gnu.version_r:
 07e0 01000500 d7000000 10000000 00000000  ................
 07f0 74196909 00000600 e1000000 10000000  t.i.............
 0800 1769690d 00000500 ed000000 10000000  .ii.............
 0810 1469690d 00000400 f7000000 10000000  .ii.............
 0820 b4919606 00000300 01010000 10000000  ................
 0830 751a6909 00000200 0c010000 00000000  u.i.............
Contents of section .rela.dyn:
 0840 f0690000 00000000 08000000 00000000  .i..............
 0850 30170000 00000000 f8690000 00000000  0........i......
 0860 08000000 00000000 f0160000 00000000  ................
 0870 086a0000 00000000 08000000 00000000  .j..............
 0880 134c0000 00000000 186a0000 00000000  .L.......j......
 0890 08000000 00000000 194c0000 00000000  .........L......
 08a0 286a0000 00000000 08000000 00000000  (j..............
 08b0 1d4c0000 00000000 386a0000 00000000  .L......8j......
 08c0 08000000 00000000 224c0000 00000000  ........"L......
 08d0 486a0000 00000000 08000000 00000000  Hj..............
 08e0 274c0000 00000000 586a0000 00000000  'L......Xj......
 08f0 08000000 00000000 2d4c0000 00000000  ........-L......
 0900 686a0000 00000000 08000000 00000000  hj..............
 0910 314c0000 00000000 786a0000 00000000  1L......xj......
 0920 08000000 00000000 364c0000 00000000  ........6L......
 0930 886a0000 00000000 08000000 00000000  .j..............
 0940 3a4c0000 00000000 986a0000 00000000  :L.......j......
 0950 08000000 00000000 3f4c0000 00000000  ........?L......
 0960 a86a0000 00000000 08000000 00000000  .j..............
 0970 434c0000 00000000 b86a0000 00000000  CL.......j......
 0980 08000000 00000000 484c0000 00000000  ........HL......
 0990 c86a0000 00000000 08000000 00000000  .j..............
 09a0 4c4c0000 00000000 d86a0000 00000000  LL.......j......
 09b0 08000000 00000000 514c0000 00000000  ........QL......
 09c0 e86a0000 00000000 08000000 00000000  .j..............
 09d0 564c0000 00000000 f86a0000 00000000  VL.......j......
 09e0 08000000 00000000 5c4c0000 00000000  ........\L......
 09f0 086b0000 00000000 08000000 00000000  .k..............
 0a00 614c0000 00000000 186b0000 00000000  aL.......k......
 0a10 08000000 00000000 674c0000 00000000  ........gL......
 0a20 286b0000 00000000 08000000 00000000  (k..............
 0a30 6c4c0000 00000000 386b0000 00000000  lL......8k......
 0a40 08000000 00000000 7c4c0000 00000000  ........|L......
 0a50 486b0000 00000000 08000000 00000000  Hk..............
 0a60 804c0000 00000000 586b0000 00000000  .L......Xk......
 0a70 08000000 00000000 724c0000 00000000  ........rL......
 0a80 686b0000 00000000 08000000 00000000  hk..............
 0a90 764c0000 00000000 786b0000 00000000  vL......xk......
 0aa0 08000000 00000000 7b4c0000 00000000  ........{L......
 0ab0 886b0000 00000000 08000000 00000000  .k..............
 0ac0 7f4c0000 00000000 986b0000 00000000  .L.......k......
 0ad0 08000000 00000000 844c0000 00000000  .........L......
 0ae0 a86b0000 00000000 08000000 00000000  .k..............
 0af0 884c0000 00000000 b86b0000 00000000  .L.......k......
 0b00 08000000 00000000 8b4c0000 00000000  .........L......
 0b10 c86b0000 00000000 08000000 00000000  .k..............
 0b20 8e4c0000 00000000 d86b0000 00000000  .L.......k......
 0b30 08000000 00000000 914c0000 00000000  .........L......
 0b40 e86b0000 00000000 08000000 00000000  .k..............
 0b50 944c0000 00000000 f86b0000 00000000  .L.......k......
 0b60 08000000 00000000 974c0000 00000000  .........L......
 0b70 086c0000 00000000 08000000 00000000  .l..............
 0b80 3c4c0000 00000000 186c0000 00000000  <L.......l......
 0b90 08000000 00000000 9a4c0000 00000000  .........L......
 0ba0 286c0000 00000000 08000000 00000000  (l..............
 0bb0 134a0000 00000000 386c0000 00000000  .J......8l......
 0bc0 08000000 00000000 9e4c0000 00000000  .........L......
 0bd0 486c0000 00000000 08000000 00000000  Hl..............
 0be0 a24c0000 00000000 586c0000 00000000  .L......Xl......
 0bf0 08000000 00000000 a64c0000 00000000  .........L......
 0c00 686c0000 00000000 08000000 00000000  hl..............
 0c10 aa4c0000 00000000 786c0000 00000000  .L......xl......
 0c20 08000000 00000000 af4c0000 00000000  .........L......
 0c30 886c0000 00000000 08000000 00000000  .l..............
 0c40 b44c0000 00000000 986c0000 00000000  .L.......l......
 0c50 08000000 00000000 ba4c0000 00000000  .........L......
 0c60 a86c0000 00000000 08000000 00000000  .l..............
 0c70 be4c0000 00000000 b86c0000 00000000  .L.......l......
 0c80 08000000 00000000 c24c0000 00000000  .........L......
 0c90 c86c0000 00000000 08000000 00000000  .l..............
 0ca0 c64c0000 00000000 d86c0000 00000000  .L.......l......
 0cb0 08000000 00000000 ca4c0000 00000000  .........L......
 0cc0 e86c0000 00000000 08000000 00000000  .l..............
 0cd0 cf4c0000 00000000 f86c0000 00000000  .L.......l......
 0ce0 08000000 00000000 d44c0000 00000000  .........L......
 0cf0 086d0000 00000000 08000000 00000000  .m..............
 0d00 d84c0000 00000000 186d0000 00000000  .L.......m......
 0d10 08000000 00000000 a0490000 00000000  .........I......
 0d20 08700000 00000000 08000000 00000000  .p..............
 0d30 08700000 00000000 c06f0000 00000000  .p.......o......
 0d40 06000000 03000000 00000000 00000000  ................
 0d50 c86f0000 00000000 06000000 04000000  .o..............
 0d60 00000000 00000000 d06f0000 00000000  .........o......
 0d70 06000000 0e000000 00000000 00000000  ................
 0d80 d86f0000 00000000 06000000 15000000  .o..............
 0d90 00000000 00000000 e06f0000 00000000  .........o......
 0da0 06000000 18000000 00000000 00000000  ................
 0db0 20700000 00000000 05000000 19000000   p..............
 0dc0 00000000 00000000                    ........        
Contents of section .rela.plt:
 0dc8 286f0000 00000000 07000000 01000000  (o..............
 0dd8 00000000 00000000 306f0000 00000000  ........0o......
 0de8 07000000 02000000 00000000 00000000  ................
 0df8 386f0000 00000000 07000000 05000000  8o..............
 0e08 00000000 00000000 406f0000 00000000  ........@o......
 0e18 07000000 06000000 00000000 00000000  ................
 0e28 486f0000 00000000 07000000 07000000  Ho..............
 0e38 00000000 00000000 506f0000 00000000  ........Po......
 0e48 07000000 08000000 00000000 00000000  ................
 0e58 586f0000 00000000 07000000 09000000  Xo..............
 0e68 00000000 00000000 606f0000 00000000  ........`o......
 0e78 07000000 0a000000 00000000 00000000  ................
 0e88 686f0000 00000000 07000000 0b000000  ho..............
 0e98 00000000 00000000 706f0000 00000000  ........po......
 0ea8 07000000 0c000000 00000000 00000000  ................
 0eb8 786f0000 00000000 07000000 0d000000  xo..............
 0ec8 00000000 00000000 806f0000 00000000  .........o......
 0ed8 07000000 0f000000 00000000 00000000  ................
 0ee8 886f0000 00000000 07000000 10000000  .o..............
 0ef8 00000000 00000000 906f0000 00000000  .........o......
 0f08 07000000 11000000 00000000 00000000  ................
 0f18 986f0000 00000000 07000000 12000000  .o..............
 0f28 00000000 00000000 a06f0000 00000000  .........o......
 0f38 07000000 13000000 00000000 00000000  ................
 0f48 a86f0000 00000000 07000000 14000000  .o..............
 0f58 00000000 00000000 b06f0000 00000000  .........o......
 0f68 07000000 16000000 00000000 00000000  ................
 0f78 b86f0000 00000000 07000000 17000000  .o..............
 0f88 00000000 00000000                    ........        
Contents of section .init:
 1000 f30f1efa 4883ec08 488b05c1 5f000048  ....H...H..._..H
 1010 85c07402 ffd04883 c408c3             ..t...H....     
Contents of section .plt:
 1020 ff35f25e 0000ff25 f45e0000 0f1f4000  .5.^...%.^....@.
 1030 f30f1efa 68000000 00e9e2ff ffff6690  ....h.........f.
 1040 f30f1efa 68010000 00e9d2ff ffff6690  ....h.........f.
 1050 f30f1efa 68020000 00e9c2ff ffff6690  ....h.........f.
 1060 f30f1efa 68030000 00e9b2ff ffff6690  ....h.........f.
 1070 f30f1efa 68040000 00e9a2ff ffff6690  ....h.........f.
 1080 f30f1efa 68050000 00e992ff ffff6690  ....h.........f.
 1090 f30f1efa 68060000 00e982ff ffff6690  ....h.........f.
 10a0 f30f1efa 68070000 00e972ff ffff6690  ....h.....r...f.
 10b0 f30f1efa 68080000 00e962ff ffff6690  ....h.....b...f.
 10c0 f30f1efa 68090000 00e952ff ffff6690  ....h.....R...f.
 10d0 f30f1efa 680a0000 00e942ff ffff6690  ....h.....B...f.
 10e0 f30f1efa 680b0000 00e932ff ffff6690  ....h.....2...f.
 10f0 f30f1efa 680c0000 00e922ff ffff6690  ....h....."...f.
 1100 f30f1efa 680d0000 00e912ff ffff6690  ....h.........f.
 1110 f30f1efa 680e0000 00e902ff ffff6690  ....h.........f.
 1120 f30f1efa 680f0000 00e9f2fe ffff6690  ....h.........f.
 1130 f30f1efa 68100000 00e9e2fe ffff6690  ....h.........f.
 1140 f30f1efa 68110000 00e9d2fe ffff6690  ....h.........f.
 1150 f30f1efa 68120000 00e9c2fe ffff6690  ....h.........f.
Contents of section .plt.got:
 1160 f30f1efa ff25765e 0000660f 1f440000  .....%v^..f..D..
Contents of section .plt.sec:
 1170 f30f1efa ff25ae5d 0000660f 1f440000  .....%.]..f..D..
 1180 f30f1efa ff25a65d 0000660f 1f440000  .....%.]..f..D..
 1190 f30f1efa ff259e5d 0000660f 1f440000  .....%.]..f..D..
 11a0 f30f1efa ff25965d 0000660f 1f440000  .....%.]..f..D..
 11b0 f30f1efa ff258e5d 0000660f 1f440000  .....%.]..f..D..
 11c0 f30f1efa ff25865d 0000660f 1f440000  .....%.]..f..D..
 11d0 f30f1efa ff257e5d 0000660f 1f440000  .....%~]..f..D..
 11e0 f30f1efa ff25765d 0000660f 1f440000  .....%v]..f..D..
 11f0 f30f1efa ff256e5d 0000660f 1f440000  .....%n]..f..D..
 1200 f30f1efa ff25665d 0000660f 1f440000  .....%f]..f..D..
 1210 f30f1efa ff255e5d 0000660f 1f440000  .....%^]..f..D..
 1220 f30f1efa ff25565d 0000660f 1f440000  .....%V]..f..D..
 1230 f30f1efa ff254e5d 0000660f 1f440000  .....%N]..f..D..
 1240 f30f1efa ff25465d 0000660f 1f440000  .....%F]..f..D..
 1250 f30f1efa ff253e5d 0000660f 1f440000  .....%>]..f..D..
 1260 f30f1efa ff25365d 0000660f 1f440000  .....%6]..f..D..
 1270 f30f1efa ff252e5d 0000660f 1f440000  .....%.]..f..D..
 1280 f30f1efa ff25265d 0000660f 1f440000  .....%&]..f..D..
 1290 f30f1efa ff251e5d 0000660f 1f440000  .....%.]..f..D..
Contents of section .text:
 12a0 f30f1efa 41574156 41554154 55534c8d  ....AWAVAUATUSL.
 12b0 9c2400c0 ffff4881 ec001000 0048830c  .$....H......H..
 12c0 24004c39 dc75ef48 81ec8800 0000488b  $.L9.u.H......H.
 12d0 0d4b5d00 00ba1100 00006448 8b042528  .K].......dH..%(
 12e0 00000048 89842478 40000031 c089fb49  ...H..$x@..1...I
 12f0 89f4488d 3dc23600 00be0100 0000e85d  ..H.=.6........]
 1300 ffffff66 0fefc048 c7442460 01000000  ...f...H.D$`....
 1310 0f294424 200f2944 2430660f 6f055e3a  .)D$ .)D$0f.o.^:
 1320 00000f29 4424400f 29442450 83fb010f  ...)D$@.)D$P....
 1330 8eb30000 008d43fe 498d6c24 084d8d7c  ......C.I.l$.M.|
 1340 c410488d 44241848 89442408 488d4424  ..H.D$.H.D$.H.D$
 1350 104c8d35 75360000 48890424 4c8d2d7b  .L.5u6..H..$L.-{
 1360 3600004c 8d258436 0000660f 1f440000  6..L.%.6..f..D..
 1370 488b5d00 4c89f648 89dfe891 feffff85  H.].L..H........
 1380 c0750948 c7442440 00000000 4c89ee48  .u.H.D$@....L..H
 1390 89dfe879 feffff85 c0750948 c7442448  ...y.....u.H.D$H
 13a0 00000000 4c89e648 89dfe861 feffff85  ....L..H...a....
 13b0 c0750948 c7442450 00000000 488b4c24  .u.H.D$P....H.L$
 13c0 08488b14 2431c048 89df488d 352e3600  .H..$1.H..H.5.6.
 13d0 00e85afe ffff83f8 020f8401 01000048  ..Z............H
 13e0 83c50849 39ef7588 4531e448 8d5c2470  ...I9.u.E1.H.\$p
 13f0 bd004000 00eb1266 0f1f8400 00000000  ..@....f........
 1400 0f88f501 00004101 c44963f4 b9004000  ......A..Ic...@.
 1410 0089ea48 39ce480f 43ce4429 e231ff48  ...H9.H.C.D).1.H
 1420 63d24829 f14801de e863fdff ff85c075  c.H).H...c.....u
 1430 cf4c8d6c 24204889 df4c89ee e8bf0700  .L.l$ H..L......
 1440 004889c5 4885c00f 84c20100 004889c7  .H..H........H..
 1450 e87b1d00 00be0a00 00004889 df4989c4  .{........H..I..
 1460 e85bfdff ff4885c0 0f84ba01 0000488d  .[...H........H.
 1470 58014c89 e64889df e893fdff ff85c00f  X.L..H..........
 1480 847d0000 00488d74 24104889 dfe87e19  .}...H.t$.H...~.
 1490 00004889 ef4989c4 e8331d00 00488d74  ..H..I...3...H.t
 14a0 24184889 c7e86619 00004989 c58b4424  $.H...f...I...D$
 14b0 18394424 100f84b7 00000048 8d0db038  .9D$.......H...8
 14c0 0000ba50 00000048 8d355e35 0000488d  ...P...H.5^5..H.
 14d0 3d5e3500 00e8f6fc ffff660f 1f440000  =^5.......f..D..
 14e0 f30f7e44 24184883 c5080f16 4424100f  ..~D$.H.....D$..
 14f0 11442458 4c39fd0f 8573feff ffe9e6fe  .D$XL9...s......
 1500 ffff488b 74245848 8b7c2460 e86f0200  ..H.t$XH.|$`.o..
 1510 00488b7c 24384989 c4e8f20b 0000488b  .H.|$8I.......H.
 1520 7c243048 89c3e8b5 1300004c 89ef4d89  |$0H.......L..M.
 1530 e04889d9 4889c248 89eee8b1 12000048  .H..H..H.......H
 1540 89c7e879 11000048 8b842478 40000064  ...y...H..$x@..d
 1550 482b0425 28000000 0f85c500 00004881  H+.%(.........H.
 1560 c4884000 0031c05b 5d415c41 5d415e41  ..@..1.[]A\A]A^A
 1570 5fc3488b 0da75a00 00ba2700 0000be01  _.H...Z...'.....
 1580 00000031 db488d3d bc2d0000 e8cffcff  ...1.H.=.-......
 1590 ff448b74 24184585 f67e260f 1f440000  .D.t$.E..~&..D..
 15a0 4d8b7cdd 00498b2c dc4c89fe 4889efe8  M.|..I.,.L..H...
 15b0 5cfcffff 85c07511 4883c301 4139de7f  \.....u.H...A9..
 15c0 df83cfff e887fcff ff488b3d 505a0000  .........H.=PZ..
 15d0 89d94d89 f94989e8 488d1591 2d0000be  ..M..I..H...-...
 15e0 02000000 31c04883 c301e881 fcffff44  ....1.H........D
 15f0 8b742418 4139de7f a7ebc648 8d3d262d  .t$.A9.....H.=&-
 1600 0000e899 fbffff83 cfffe841 fcffff48  ...........A...H
 1610 8d3d0034 0000e885 fbffff83 cfffe82d  .=.4...........-
 1620 fcffffe8 88fbffff 488d0d31 370000ba  ........H..17...
 1630 18000000 488d35f1 33000048 8d3dc232  ....H.5.3..H.=.2
 1640 0000e889 fbffff66 0f1f8400 00000000  .......f........
 1650 f30f1efa 31ed4989 d15e4889 e24883e4  ....1.I..^H..H..
 1660 f0505445 31c031c9 488d3d31 fcffffff  .PTE1.1.H.=1....
 1670 154b5900 00f4662e 0f1f8400 00000000  .KY...f.........
 1680 488d3d89 59000048 8d058259 00004839  H.=.Y..H...Y..H9
 1690 f8741548 8b052e59 00004885 c07409ff  .t.H...Y..H..t..
 16a0 e00f1f80 00000000 c30f1f80 00000000  ................
 16b0 488d3d59 59000048 8d355259 00004829  H.=YY..H.5RY..H)
 16c0 fe4889f0 48c1ee3f 48c1f803 4801c648  .H..H..?H...H..H
 16d0 d1fe7414 488b05fd 58000048 85c07408  ..t.H...X..H..t.
 16e0 ffe0660f 1f440000 c30f1f80 00000000  ..f..D..........
 16f0 f30f1efa 803d2d59 00000075 2b554883  .....=-Y...u+UH.
 1700 3dda5800 00004889 e5740c48 8b3df658  =.X...H..t.H.=.X
 1710 0000e849 faffffe8 64ffffff c6050559  ...I....d......Y
 1720 0000015d c30f1f00 c30f1f80 00000000  ...]............
 1730 f30f1efa e977ffff ff0f1f80 00000000  .....w..........
 1740 f30f1efa 48c1ee06 31d24883 47180148  ....H...1.H.G..H
 1750 89f048f7 7708488b 074863d2 488d04d0  ..H.w.H..Hc.H...
 1760 48393074 08488347 20014889 30c36690  H90t.H.G .H.0.f.
 1770 f30f1efa 488b5720 488b4718 c30f1f00  ....H.W H.G.....
 1780 f30f1efa 4889f831 d2415449 89fc48f7  ....H..1.ATI..H.
 1790 f6555349 29d44939 fc754abf 28000000  .USI).I9.uJ.(...
 17a0 4889f5e8 78faffff 4889c348 85c07479  H...x...H..H..ty
 17b0 be080000 004c89e7 e843faff ff660fef  .....L...C...f..
 17c0 c04c8963 080f1143 1048c743 20000000  .L.c...C.H.C ...
 17d0 00488903 48896b10 4885c074 2d4889d8  .H..H.k.H..t-H..
 17e0 5b5d415c c3488b0d 34580000 ba780000  []A\.H..4X...x..
 17f0 00be0100 0000488d 3d0b2800 00e85efa  ......H.=.(...^.
 1800 ffff83cf ffe846fa ffff488d 0dcf3400  ......F...H...4.
 1810 00ba4800 0000488d 35d23000 00488d3d  ..H...H.5.0..H.=
 1820 d3300000 e8a7f9ff ff488d0d b0340000  .0.......H...4..
 1830 ba420000 00488d35 b3300000 488d3db2  .B...H.5.0..H.=.
 1840 300000e8 88f9ffff 0f1f8400 00000000  0...............
 1850 f30f1efa 534889fb 488b3fe8 10f9ffff  ....SH..H.?.....
 1860 4889df5b e907f9ff ff0f1f80 00000000  H..[............
 1870 5058488d 15ac3000 00be0200 000031c0  PXH...0.......1.
 1880 4883ec08 4889f948 8b3d9257 0000e8dd  H...H..H.=.W....
 1890 f9ffffbf ffffffff e8b3f9ff ff0f1f00  ................
 18a0 f30f1efa 41564155 41545553 488b6f50  ....AVAUATUSH.oP
 18b0 4885ed0f 84320300 004889f3 4885f60f  H....2...H..H...
 18c0 841a0300 004885d2 0f840503 0000488b  .....H........H.
 18d0 47484885 c00f84ec 02000048 83780800  GHH........H.x..
 18e0 0f84d502 00004889 efe84210 00008b53  ......H...B....S
 18f0 104189c4 4d8d6c24 0483fa01 0f84be00  .A..M.l$........
 1900 000085d2 756a8b03 83f81a0f 84070100  ....uj..........
 1910 0083f81b 0f859600 00008b73 1c4889ef  ...........s.H..
 1920 e8eb0f00 008b7320 4889ef49 89c4e8dd  ......s H..I....
 1930 0f000049 39c40f92 c28b7318 4889ef0f  ...I9.....s.H...
 1940 b6d2e8d9 0f00004c 89ee4889 efe8ee0f  .......L..H.....
 1950 000031d2 31f64889 efe8c20f 000031c0  ..1.1.H.......1.
 1960 5b5d415c 415d415e c30f1f80 00000000  []A\A]A^........
 1970 83fa0274 6bb80100 000083fa 0375e183  ...tk........u..
 1980 3b3175dc 8b73184c 89ea4889 efe88e0f  ;1u..s.L..H.....
 1990 00008b73 1c4889ef e8730f00 004c8b6b  ...s.H...s...L.k
 19a0 204883e0 fe4901c5 eb9d660f 1f440000   H...I....f..D..
 19b0 5bb80100 00005d41 5c415d41 5ec36690  [.....]A\A]A^.f.
 19c0 8b038d50 e483fa12 77e6488d 0d1f3300  ...P....w.H...3.
 19d0 00486304 914801c8 3effe00f 1f440000  .Hc..H..>....D..
 19e0 8b1383fa 2f0f84b5 010000b8 01000000  ..../...........
 19f0 83fa300f 8567ffff ff8b7318 4c89ea48  ..0..g....s.L..H
 1a00 89efe819 0f00004c 8b6b204d 01e5e934  .......L.k M...4
 1a10 ffffff0f 1f440000 8b731c48 89efe8ed  .....D...s.H....
 1a20 0e00008b 73204889 ef4989c4 e8df0e00  ....s H..I......
 1a30 004939c4 0f9cc28b 73184889 ef0fb6d2  .I9.....s.H.....
 1a40 e8db0e00 00e9fdfe ffff660f 1f440000  ..........f..D..
 1a50 8b731c48 89efe8b5 0e000048 3b4320eb  .s.H.......H;C .
 1a60 d30f1f80 00000000 8b731c48 89efe89d  .........s.H....
 1a70 0e000048 3b4320e9 bafeffff 0f1f4000  ...H;C .......@.
 1a80 8b731848 89efe885 0e00008b 731c4889  .s.H........s.H.
 1a90 ef4989c6 e8770e00 004939c6 0f85a5fe  .I...w...I9.....
 1aa0 ffffe960 ffffff66 0f1f8400 00000000  ...`...f........
 1ab0 8b731848 89efe855 0e00008b 731c4889  .s.H...U....s.H.
 1ac0 ef4989c6 e8470e00 004939c6 0f8535ff  .I...G...I9...5.
 1ad0 ffffe970 feffff66 0f1f8400 00000000  ...p...f........
 1ae0 8b731848 89efe825 0e00008b 731c4889  .s.H...%....s.H.
 1af0 ef4989c6 e8170e00 004939c6 0f8d45fe  .I.......I9...E.
 1b00 ffffe900 ffffff66 0f1f8400 00000000  .......f........
 1b10 8b731848 89efe8f5 0d00008b 731c4889  .s.H........s.H.
 1b20 ef4989c6 e8e70d00 004939c6 0f8c15fe  .I.......I9.....
 1b30 ffffe9d0 feffff66 0f1f8400 00000000  .......f........
 1b40 8b731848 89efe8c5 0d00008b 731c4889  .s.H........s.H.
 1b50 ef4989c6 e8b70d00 004939c6 0f83e5fd  .I.......I9.....
 1b60 ffffe9a0 feffff66 0f1f8400 00000000  .......f........
 1b70 8b731848 89efe895 0d00008b 731c4889  .s.H........s.H.
 1b80 ef4989c6 e8870d00 004939c6 0f82b5fd  .I.......I9.....
 1b90 ffffe970 feffff66 0f1f8400 00000000  ...p...f........
 1ba0 488b5320 8b731848 89ef48c1 e20c4c01  H.S .s.H..H...L.
 1bb0 e2e86a0d 0000e98c fdffff48 8d3d2626  ..j........H.=&&
 1bc0 0000e8a9 fcffff48 8d3dba25 0000e89d  .......H.=.%....
 1bd0 fcffff48 8d3d5e25 0000e891 fcffff48  ...H.=^%.......H
 1be0 8d3d0225 0000e885 fcffff48 8d3d9624  .=.%.......H.=.$
 1bf0 0000e879 fcffff66 0f1f8400 00000000  ...y...f........
 1c00 f30f1efa 41574156 41554989 f5415455  ....AWAVAUI..ATU
 1c10 534881ec 68010000 64488b04 25280000  SH..h...dH..%(..
 1c20 00488984 24580100 0031c048 8d74244c  .H..$X...1.H.t$L
 1c30 e8db1100 004989c4 8b44244c 85c00f8e  .....I...D$L....
 1c40 cc030000 bf100000 00e8d2f5 ffff4889  ..............H.
 1c50 44241848 85c00f84 25040000 498b3c24  D$.H....%...I.<$
 1c60 4c89ea49 8d4d084d 8d4d184d 8d451048  L..I.M.M.M.M.E.H
 1c70 8d35c62c 000031c0 e8b3f5ff ff488d15  .5.,..1......H..
 1c80 c82c0000 83f8040f 85d90100 008b4424  .,............D$
 1c90 4c8d68ff 4863c589 6c244c48 8d3c8048  L.h.Hc..l$LH.<.H
 1ca0 c1e703e8 78f5ffff 4889c348 85c00f84  ....x...H..H....
 1cb0 ec030000 488b4424 18488958 08892885  ....H.D$.H.X..(.
 1cc0 ed0f8ee0 01000048 8d442440 4531ff48  .......H.D$@E1.H
 1cd0 8d6c2450 48894424 20488d44 243c4889  .l$PH.D$ H.D$<H.
 1ce0 44241048 8d442438 48894424 084c89e8  D$.H.D$8H.D$.L..
 1cf0 4d89fd49 89c7e9cc 0000000f 1f440000  M..I.........D..
 1d00 488d4424 444b8b7c ec084c8b 44241048  H.D$DK.|..L.D$.H
 1d10 89ea488b 4c240848 89442428 4989c131  ..H.L$.H.D$(I..1
 1d20 c0488d35 512c0000 e803f5ff ff83f804  .H.5Q,..........
 1d30 0f84a201 00004b8b 7cec084c 8b4c2408  ......K.|..L.L$.
 1d40 31c04889 ea488b4c 24104c8d 44244848  1.H..H.L$.L.D$HH
 1d50 8d35312c 0000e8d5 f4ffff83 f8040f84  .51,............
 1d60 cc010000 4b8b7cec 084c8b44 242831c0  ....K.|..L.D$(1.
 1d70 4889ea48 8b4c2408 488d3517 2c0000e8  H..H.L$.H.5.,...
 1d80 acf4ffff 83f8030f 843b0200 004b8b7c  .........;...K.|
 1d90 ec08488d 35072c00 00e872f4 ffff85c0  ..H.5.,...r.....
 1da0 0f84da01 00008b03 83f8330f 84ae0000  ..........3.....
 1db0 00488b44 24184983 c5014883 c3284439  .H.D$.I...H..(D9
 1dc0 280f8ee0 00000049 8b07c703 33000000  (......I....3...
 1dd0 4889ea48 8d35902b 00004b8b 7cec084c  H..H.5.+..K.|..L
 1de0 8b4c2420 4c8b4424 10488b4c 24084e8d  .L$ L.D$.H.L$.N.
 1df0 34a831c0 e837f4ff ff83f804 0f85fefe  4.1..7..........
 1e00 ffff4889 efe8e611 000089c7 e85f1100  ..H.........._..
 1e10 0085c00f 85270200 004889ef e8cf1100  .....'...H......
 1e20 00660f6e 44243866 0f6e5424 3c660fef  .f.nD$8f.nT$<f..
 1e30 c98b5424 400f110b 660f62c2 48c74320  ..T$@...f.b.H.C 
 1e40 00000000 0f114b10 89034c89 73088953  ......K...L.s..S
 1e50 20660fd6 431883f8 330f8552 ffffff48   f..C...3..R...H
 1e60 8d15402b 0000488d 35b12a00 00bf0200  ..@+..H.5.*.....
 1e70 000031c0 e8c7f3ff ff4c89e7 e8cf1000  ..1......L......
 1e80 00488b44 2418488b 78084885 ff7405e8  .H.D$.H.x.H..t..
 1e90 dcf2ffff 488b7c24 18e8d2f2 ffff48c7  ....H.|$......H.
 1ea0 44241800 00000048 8b842458 01000064  D$.....H..$X...d
 1eb0 482b0425 28000000 0f85be01 0000488b  H+.%(.........H.
 1ec0 44241848 81c46801 00005b5d 415c415d  D$.H..h...[]A\A]
 1ed0 415e415f c30f1f00 4889efe8 10110000  A^A_....H.......
 1ee0 89c7e889 10000083 f8010f85 5c010000  ............\...
 1ef0 4889efe8 f8100000 660f6e44 2438660f  H.......f.nD$8f.
 1f00 6e5c243c 4c897308 48635424 44890366  n\$<L.s.HcT$D..f
 1f10 0f62c3c7 43100100 00004889 5320660f  .b..C.....H.S f.
 1f20 d64318e9 80feffff 0f1f8400 00000000  .C..............
 1f30 4889efe8 b8100000 89c7e831 10000083  H..........1....
 1f40 f8030f85 10010000 4889efe8 a0100000  ........H.......
 1f50 660f6e44 243c660f 6e642438 4c897308  f.nD$<f.nd$8L.s.
 1f60 48635424 48890366 0f62c4c7 43100300  HcT$H..f.b..C...
 1f70 00004889 5320660f d64318e9 28feffff  ..H.S f..C..(...
 1f80 4889efe8 68100000 89c7e8e1 0f000083  H...h...........
 1f90 f8040f85 cc000000 4889efe8 50100000  ........H...P...
 1fa0 660fefc0 48c74320 00000000 0f11030f  f...H.C ........
 1fb0 11431089 034c8973 08c74310 04000000  .C...L.s..C.....
 1fc0 e9e3fdff ff0f1f00 4889efe8 20100000  ........H... ...
 1fd0 89c7e899 0f000083 f8020f85 90000000  ................
 1fe0 4889efe8 08100000 48635424 448b4c24  H.......HcT$D.L$
 1ff0 384c8973 088903c7 43100200 0000894b  8L.s....C......K
 2000 18488953 20e99efd ffff660f 1f440000  .H.S .....f..D..
 2010 31c0488d 15ed2800 00bf0200 0000488d  1.H...(.......H.
 2020 35f92800 00e816f2 ffff4d85 e40f846b  5.(.......M....k
 2030 feffff4c 89e7e815 0f0000e9 5efeffff  ...L........^...
 2040 488d1511 220000e9 1afeffff 488d152d  H...".......H..-
 2050 220000e9 0efeffff 488d1549 220000e9  ".......H..I"...
 2060 02feffff 488d158d 220000e9 f6fdffff  ....H...".......
 2070 488d1559 220000e9 eafdffff e82ff1ff  H..Y"......../..
 2080 ff488d0d b82c0000 ba280000 00488d35  .H...,...(...H.5
 2090 95280000 488d3d9d 280000e8 30f1ffff  .(..H.=.(...0...
 20a0 488d0d99 2c0000ba 31000000 488d3576  H...,...1...H.5v
 20b0 28000048 8d3daa28 0000e811 f1ffff90  (..H.=.(........
 20c0 f30f1efa 534889fb 488b7f08 4885ff74  ....SH..H...H..t
 20d0 05e89af0 ffff4889 df5be991 f0ffff90  ......H..[......
 20e0 5058488d 153c2800 00be0200 000031c0  PXH..<(.......1.
 20f0 4883ec08 4889f948 8b3d224f 0000e86d  H...H..H.="O...m
 2100 f1ffffbf ffffffff e843f1ff ff0f1f00  .........C......
 2110 f30f1efa 554889fd bf100000 00534883  ....UH.......SH.
 2120 ec08e8f9 f0ffff48 85c07426 be010000  .......H..t&....
 2130 004889ef 4889c3e8 c4f0ffff 48890348  .H..H.......H..H
 2140 85c0742d 48896b08 4883c408 4889d85b  ..t-H.k.H...H..[
 2150 5dc3488d 0d672c00 00ba1800 0000488d  ].H..g,.......H.
 2160 35e12800 00488d3d e8280000 e85ff0ff  5.(..H.=.(..._..
 2170 ff488d0d 482c0000 ba1a0000 00488d35  .H..H,.......H.5
 2180 c2280000 488d3dc4 280000e8 40f0ffff  .(..H.=.(...@...
 2190 f30f1efa 534889fb 488b3fe8 d0efffff  ....SH..H.?.....
 21a0 4889df5b e9c7efff ff0f1f80 00000000  H..[............
 21b0 f30f1efa 488b4708 c30f1f80 00000000  ....H.G.........
 21c0 f30f1efa 483b7708 7308488b 070fb604  ....H;w.s.H.....
 21d0 30c35048 8b3d464e 00004889 f131c048  0.PH.=FN..H..1.H
 21e0 8d15c221 0000be02 000000e8 80f0ffff  ...!............
 21f0 83cfffe8 58f0ffff 0f1f8400 00000000  ....X...........
 2200 f30f1efa 41574156 41554154 55534883  ....AWAVAUATUSH.
 2210 ec184c8b 77504d85 f60f8458 04000048  ..L.wPM....X...H
 2220 89f54885 f60f8440 04000049 89d54885  ..H....@...I..H.
 2230 d20f8470 0400004c 8b7f5848 89fb4d85  ...p...L..XH..M.
 2240 ff0f8454 04000048 8b474848 85c00f84  ...T...H.GHH....
 2250 3b040000 48837808 000f8424 0400004c  ;...H.x....$...L
 2260 89f7e8c9 0600008b 7d004189 c4e8fe0c  ........}.A.....
 2270 0000ba01 00000083 f803754e 8b450083  ..........uN.E..
 2280 e81e83f8 0a774348 8d15022b 00008b75  .....wCH...+...u
 2290 1c4c89f7 48630482 4801d03e ffe06690  .L..Hc..H..>..f.
 22a0 4d89e048 8b3d764d 0000488d 15372300  M..H.=vM..H..7#.
 22b0 00be0200 000031c0 e8b3efff ff41c745  ......1......A.E
 22c0 00010000 00baffff ffff4883 c41889d0  ..........H.....
 22d0 5b5d415c 415d415e 415fc30f 1f440000  []A\A]A^A_...D..
 22e0 e82b0600 00480345 204889c1 483b4318  .+...H.E H..H;C.
 22f0 73ae483b 430872a8 488b7b60 4889c648  s.H;C.r.H.{`H..H
 2300 89442408 e837f4ff ff498b07 488b4c24  .D$..7...I..H.L$
 2310 084c89f7 8b751848 8b1408e8 00060000  .L...u.H........
 2320 498d7424 044c89f7 e8130600 0031d231  I.t$.L.......1.1
 2330 f64c89f7 e8e70500 0031d2eb 8d0f1f00  .L.......1......
 2340 e8cb0500 00480345 20483b43 180f830d  .....H.E H;C....
 2350 03000048 3b43080f 82030300 00488b7b  ...H;C.......H.{
 2360 604889c6 48894424 08e8d2f3 ffff8b75  `H..H.D$.......u
 2370 18488b44 24084c89 f7490307 4889c3e8  .H.D$.L..I..H...
 2380 8c050000 488903eb 970f1f80 00000000  ....H...........
 2390 e87b0500 00480345 204889c1 483b4318  .{...H.E H..H;C.
 23a0 0f83fafe ffff483b 43080f82 f0feffff  ......H;C.......
 23b0 488b7b60 4889c648 89442408 e87ff3ff  H.{`H..H.D$.....
 23c0 ff8b7518 4c89f7e8 44050000 488b4c24  ..u.L...D...H.L$
 23d0 084889c2 498b0766 891408e9 40ffffff  .H..I..f....@...
 23e0 e82b0500 00480345 204889c1 483b4318  .+...H.E H..H;C.
 23f0 0f83aafe ffff483b 43080f82 a0feffff  ......H;C.......
 2400 488b7b60 4889c648 89442408 e82ff3ff  H.{`H..H.D$../..
 2410 ff8b7518 4c89f7e8 f4040000 488b4c24  ..u.L.......H.L$
 2420 084889c2 498b0788 1408e9f1 feffff90  .H..I...........
 2430 e8db0400 00480345 204889c1 483b4318  .....H.E H..H;C.
 2440 0f835afe ffff483b 43080f82 50feffff  ..Z...H;C...P...
 2450 488b7b60 4889c648 89442408 e8dff2ff  H.{`H..H.D$.....
 2460 ff498b07 488b4c24 084c89f7 8b751848  .I..H.L$.L...u.H
 2470 631408e8 a8040000 e9a3feff ff0f1f00  c...............
 2480 e88b0400 00480345 204889c1 483b4318  .....H.E H..H;C.
 2490 0f830afe ffff483b 43080f82 00feffff  ......H;C.......
 24a0 488b7b60 4889c648 89442408 e88ff2ff  H.{`H..H.D$.....
 24b0 ff498b07 488b4c24 084c89f7 8b75180f  .I..H.L$.L...u..
 24c0 b61408e8 58040000 e953feff ff0f1f00  ....X....S......
 24d0 e83b0400 00480345 204889c1 483b4318  .;...H.E H..H;C.
 24e0 0f83bafd ffff483b 43080f82 b0fdffff  ......H;C.......
 24f0 488b7b60 4889c648 89442408 e83ff2ff  H.{`H..H.D$..?..
 2500 ff498b07 488b4c24 084c89f7 8b75180f  .I..H.L$.L...u..
 2510 b71408e8 08040000 e903feff ff0f1f00  ................
 2520 e8eb0300 00480345 204889c1 483b4318  .....H.E H..H;C.
 2530 0f836afd ffff483b 43080f82 60fdffff  ..j...H;C...`...
 2540 488b7b60 4889c648 89442408 e8eff1ff  H.{`H..H.D$.....
 2550 ff498b07 488b4c24 084c89f7 8b75188b  .I..H.L$.L...u..
 2560 1408e8b9 030000e9 b4fdffff 0f1f4000  ..............@.
 2570 e89b0300 00480345 204889c1 483b4318  .....H.E H..H;C.
 2580 0f831afd ffff483b 43080f82 10fdffff  ......H;C.......
 2590 488b7b60 4889c648 89442408 e89ff1ff  H.{`H..H.D$.....
 25a0 ff498b07 488b4c24 084c89f7 8b751848  .I..H.L$.L...u.H
 25b0 0fbe1408 e8670300 00e962fd ffff6690  .....g....b...f.
 25c0 e84b0300 00480345 204889c1 483b4318  .K...H.E H..H;C.
 25d0 0f83cafc ffff483b 43080f82 c0fcffff  ......H;C.......
 25e0 488b7b60 4889c648 89442408 e84ff1ff  H.{`H..H.D$..O..
 25f0 ff498b07 488b4c24 084c89f7 8b751848  .I..H.L$.L...u.H
 2600 0fbf1408 e8170300 00e912fd ffff6690  ..............f.
 2610 e8fb0200 00480345 204889c1 483b4318  .....H.E H..H;C.
 2620 0f837afc ffff483b 43080f82 70fcffff  ..z...H;C...p...
 2630 488b7b60 4889c648 89442408 e8fff0ff  H.{`H..H.D$.....
 2640 ff8b7518 4c89f7e8 c4020000 488b4c24  ..u.L.......H.L$
 2650 084889c2 498b0789 1408e9c1 fcffff90  .H..I...........
 2660 4d89e048 89c1e938 fcffff48 8d3dc61d  M..H...8...H.=..
 2670 0000e869 faffff48 8d3d621d 0000e85d  ...i...H.=b....]
 2680 faffff48 8d3df61e 0000e851 faffff48  ...H.=.....Q...H
 2690 8d3d921e 0000e845 faffff48 8d3d2e1e  .=.....E...H.=..
 26a0 0000e839 faffff48 8d3dda1d 0000e82d  ...9...H.=.....-
 26b0 faffff66 2e0f1f84 00000000 000f1f00  ...f............
 26c0 f30f1efa 41554c8d 2d5b1f00 00415455  ....AUL.-[...ATU
 26d0 4889fd53 4883ec18 64488b04 25280000  H..SH...dH..%(..
 26e0 00488944 240831c0 4c8d6424 04e8ce0d  .H.D$.1.L.d$....
 26f0 0000eb5d 0f1f4000 4c89e248 89de4889  ...]..@.L..H..H.
 2700 efe84a02 000085c0 0f88b200 00004c89  ..J...........L.
 2710 e24889de 4889efe8 e4faffff 85c00f88  .H..H...........
 2720 9c000000 4c89e248 89de4889 efe86ef1  ....L..H..H...n.
 2730 ffff85c0 0f888600 00004889 efe81e0e  ..........H.....
 2740 00004883 7d280075 674c89ef e84feaff  ..H.}(.ugL...O..
 2750 ff488b7d 50e8d601 000089c3 488b4500  .H.}P.......H.E.
 2760 4839c372 06483b5d 08720e31 f64889ef  H9.r.H;].r.1.H..
 2770 e89b0f00 00488b45 004829c3 488b5548  .....H.E.H).H.UH
 2780 4889d848 83e3fc48 c1e80248 01c3488b  H..H...H...H..H.
 2790 42084883 7d200048 8d1cd80f 8457ffff  B.H.} .H.....W..
 27a0 ff4889df e8b70800 00e94aff ffff6690  .H........J...f.
 27b0 4889efe8 580c0000 eb8f660f 1f440000  H...X.....f..D..
 27c0 8b742404 4889efe8 440f0000 488b4424  .t$.H...D...H.D$
 27d0 0864482b 04252800 0000750b 4883c418  .dH+.%(...u.H...
 27e0 5b5d415c 415dc3e8 c4e9ffff 0f1f4000  []A\A]........@.
 27f0 f30f1efa 41564989 febf6800 00004155  ....AVI...h...AU
 2800 4989f541 544989d4 554889cd 534c89c3  I..ATI..UH..SL..
 2810 e80beaff ff4885c0 7447f341 0f6f5610  .....H..tG.A.oV.
 2820 f3410f6f 4e204c89 6848f341 0f6f4630  .A.oN L.hH.A.oF0
 2830 498b5640 4c896050 f3410f6f 1e488968  I.V@L.`P.A.o.H.h
 2840 58488950 40488958 600f1118 0f115010  XH.P@H.X`.....P.
 2850 0f114820 0f114030 5b5d415c 415d415e  ..H ..@0[]A\A]A^
 2860 c3488d0d 68250000 ba2f0000 00488d35  .H..h%.../...H.5
 2870 e2210000 488d3de7 210000e8 50e9ffff  .!..H.=.!...P...
 2880 f30f1efa 534889fb 488b7f50 4885ff74  ....SH..H..PH..t
 2890 05e86a00 0000488b 7b584885 ff7405e8  ..j...H.{XH..t..
 28a0 ecf8ffff 488b7b48 4885ff74 05e80ef8  ....H.{HH..t....
 28b0 ffff4889 df5be9b5 e8ffff0f 1f440000  ..H..[.......D..
 28c0 50584883 ec08488b 35534700 00e80ee9  PXH...H.5SG.....
 28d0 ffffbfff ffffffe8 74e9ffff 0f1f4000  ........t.....@.
 28e0 f30f1efa 53be0100 00004889 fbbf0801  ....S.....H.....
 28f0 0000e809 e9ffff48 89980001 00005bc3  .......H......[.
 2900 f30f1efa e967e8ff ff0f1f80 00000000  .....g..........
 2910 f30f1efa 89f6488b 04f7c30f 1f440000  ......H......D..
 2920 f30f1efa 89f64889 14f7c30f 1f440000  ......H......D..
 2930 f30f1efa 8b870001 0000c30f 1f440000  .............D..
 2940 f30f1efa 4889b700 010000c3 0f1f4000  ....H.........@.
 2950 f30f1efa 55534883 ec08488b 6f504885  ....USH...H.oPH.
 2960 ed0f8442 04000048 89f04885 f60f8466  ...B...H..H....f
 2970 04000048 85d20f84 45040000 488b4f48  ...H....E...H.OH
 2980 4885c90f 842c0400 00488379 08000f84  H....,...H.y....
 2990 39040000 8b0e8b9d 00010000 8b761085  9............v..
 29a0 c9753d48 8b858800 000083fe 040f8532  .u=H...........2
 29b0 04000048 83f8020f 84b30000 004883f8  ...H.........H..
 29c0 170f84b9 000000c7 02030000 00baffff  ................
 29d0 ffff4883 c40889d0 5b5dc30f 1f440000  ..H.....[]...D..
 29e0 85f6751c 83f91777 77488d35 f0230000  ..u....wwH.5.#..
 29f0 4863148e 4801f23e ffe2660f 1f440000  Hc..H..>..f..D..
 2a00 83fe0174 3bba0100 000083f9 1975c38b  ...t;........u..
 2a10 5018488b 402048c1 e00c4889 44d50048  P.H.@ H...H.D..H
 2a20 83c30448 c7450000 00000031 d248899d  ...H.E.....1.H..
 2a30 00010000 eb9c662e 0f1f8400 00000000  ......f.........
 2a40 83e90383 f9157718 488d35f1 23000048  ......w.H.5.#..H
 2a50 63148e48 01f23eff e20f1f80 00000000  c..H..>.........
 2a60 ba010000 00e968ff ffff660f 1f440000  ......h...f..D..
 2a70 c7020200 0000e952 ffffff0f 1f440000  .......R.....D..
 2a80 e83b0a00 004883c3 0431d248 899d0001  .;...H...1.H....
 2a90 0000e93b ffffff66 0f1f8400 00000000  ...;...f........
 2aa0 8b48208b 701c8b50 18488b44 f5004833  .H .p..P.H.D..H3
 2ab0 44cd0048 8944d500 e962ffff ff0f1f00  D..H.D...b......
 2ac0 8b48208b 701c8b50 18488b44 f5004823  .H .p..P.H.D..H#
 2ad0 44cd0048 8944d500 e942ffff ff0f1f00  D..H.D...B......
 2ae0 8b48208b 701c8b50 18488b44 f500480b  .H .p..P.H.D..H.
 2af0 44cd0048 8944d500 e922ffff ff0f1f00  D..H.D..."......
 2b00 8b501c8b 70188b40 20488b54 d500488b  .P..p..@ H.T..H.
 2b10 4cc500d3 fa4863d2 488954f5 00e9fdfe  L....Hc.H.T.....
 2b20 ffff660f 1f440000 8b701c8b 50188b40  ..f..D...p..P..@
 2b30 20488b4c c500488b 44f50048 d3f84889   H.L..H.D..H..H.
 2b40 44d500e9 d7feffff 0f1f8400 00000000  D...............
 2b50 8b501c8b 70188b40 20488b54 d500488b  .P..p..@ H.T..H.
 2b60 4cc500d3 ea4863d2 488954f5 00e9adfe  L....Hc.H.T.....
 2b70 ffff660f 1f440000 8b701c8b 50188b40  ..f..D...p..P..@
 2b80 20488b4c c500488b 44f50048 d3e84889   H.L..H.D..H..H.
 2b90 44d500e9 87feffff 0f1f8400 00000000  D...............
 2ba0 8b501c8b 70188b40 20488b54 d500488b  .P..p..@ H.T..H.
 2bb0 4cc500d3 e24863d2 488954f5 00e95dfe  L....Hc.H.T...].
 2bc0 ffff660f 1f440000 8b701c8b 50188b40  ..f..D...p..P..@
 2bd0 20488b4c c500488b 44f50048 d3e04889   H.L..H.D..H..H.
 2be0 44d500e9 37feffff 0f1f8400 00000000  D...7...........
 2bf0 8b501c8b 48188b40 20488b54 d50089d7  .P..H..@ H.T....
 2c00 2b7cc500 4863c748 8944cd00 e90efeff  +|..Hc.H.D......
 2c10 ff0f1f80 00000000 8b48208b 701c8b50  .........H .p..P
 2c20 18488b44 f500482b 44cd0048 8944d500  .H.D..H+D..H.D..
 2c30 e9eafdff ff0f1f00 8b481c8b 50188b40  .........H..P..@
 2c40 20488b44 c5000344 cd004898 488944d5   H.D...D..H.H.D.
 2c50 00e9c9fd ffff662e 0f1f8400 00000000  ......f.........
 2c60 8b481c8b 50188b40 20488b44 c5004803  .H..P..@ H.D..H.
 2c70 44cd0048 8944d500 e9a2fdff ff8b501c  D..H.D........P.
 2c80 8b481848 8b54d500 48335020 488954cd  .H.H.T..H3P H.T.
 2c90 00e989fd ffff8b50 1c8b4818 488b54d5  .......P..H.H.T.
 2ca0 00482350 20488954 cd00e970 fdffff8b  .H#P H.T...p....
 2cb0 501c8b48 18488b54 d500480b 50204889  P..H.H.T..H.P H.
 2cc0 54cd00e9 57fdffff 8b501c48 8b48208b  T...W....P.H.H .
 2cd0 7018488b 54d500d3 fa4863c2 488944f5  p.H.T....Hc.H.D.
 2ce0 00e939fd ffff8b70 1c488b48 208b5018  ..9....p.H.H .P.
 2cf0 488b44f5 0048d3f8 488944d5 00e91dfd  H.D..H..H.D.....
 2d00 ffff8b50 1c488b48 208b7018 488b54d5  ...P.H.H .p.H.T.
 2d10 00d3ea48 63c24889 44f500e9 fffcffff  ...Hc.H.D.......
 2d20 8b701c48 8b48208b 5018488b 44f50048  .p.H.H .P.H.D..H
 2d30 d3e84889 44d500e9 e3fcffff 8b501c48  ..H.D........P.H
 2d40 8b48208b 7018488b 54d500d3 e24863c2  .H .p.H.T....Hc.
 2d50 488944f5 00e9c5fc ffff8b70 1c488b48  H.D........p.H.H
 2d60 208b5018 488b44f5 0048d3e0 488944d5   .P.H.D..H..H.D.
 2d70 00e9a9fc ffff8b48 1c8b5018 488b4020  .......H..P.H.@ 
 2d80 0344cd00 48984889 44d500e9 8ffcffff  .D..H.H.D.......
 2d90 8b481c8b 5018488b 40204803 44cd0048  .H..P.H.@ H.D..H
 2da0 8944d500 e976fcff ff488d3d f0180000  .D...v...H.=....
 2db0 e80bfbff ff488d3d d4190000 e8fffaff  .....H.=........
 2dc0 ff488d3d 80190000 e8f3faff ff488d3d  .H.=.........H.=
 2dd0 141a0000 e8e7faff ff488d3d 18190000  .........H.=....
 2de0 e8dbfaff ff488d0d b4200000 ba500000  .....H... ...P..
 2df0 00488d35 6c1c0000 488d3d71 1c0000e8  .H.5l...H.=q....
 2e00 cce3ffff 662e0f1f 84000000 00006690  ....f.........f.
 2e10 f30f1efa 41574156 41554531 ed415449  ....AWAVAUE1.ATI
 2e20 89f45553 4883ec28 64488b04 25280000  ..USH..(dH..%(..
 2e30 00488944 241831c0 e843e4ff ff48c744  .H.D$.1..C...H.D
 2e40 24100000 00004889 c54889c3 eb096690  $.....H..H....f.
 2e50 488d5801 4189d5be 0a000000 4889dfe8  H.X.A.......H...
 2e60 5ce3ffff 418d5501 4885c075 e3803b00  \...A.U.H..u..;.
 2e70 410f44d5 448d6a01 8954240c 4d63ed49  A.D.D.j..T$.Mc.I
 2e80 c1e5034c 89efe895 e3ffff8b 54240c48  ...L........T$.H
 2e90 85c04889 c30f8491 0000004a c74428f8  ..H........J.D(.
 2ea0 00000000 4c63fa4d 85e47404 41891424  ....Lc.M..t.A..$
 2eb0 4531ed4c 8d742410 4531e485 d2742c90  E1.L.t$.E1...t,.
 2ec0 4d85ed4c 89e7488d 35f31f00 004c89f2  M..L..H.5....L..
 2ed0 480f44fd e817e3ff ff4a8904 eb4885c0  H.D......J...H..
 2ee0 742b4983 c5014d39 ef75d548 8b442418  t+I...M9.u.H.D$.
 2ef0 64482b04 25280000 00755048 83c42848  dH+.%(...uPH..(H
 2f00 89d85b5d 415c415d 415e415f c3488d0d  ..[]A\A]A^A_.H..
 2f10 1e200000 ba400000 00488d35 6c1b0000  . ...@...H.5l...
 2f20 488d3d71 1b0000e8 a4e2ffff 488d0dff  H.=q........H...
 2f30 1f0000ba 37000000 488d354d 1b000048  ....7...H.5M...H
 2f40 8d3dba19 0000e885 e2ffffe8 60e2ffff  .=..........`...
 2f50 f30f1efa 534889fb 488b3f48 85ff7405  ....SH..H.?H..t.
 2f60 e80be2ff ff4889df 5be902e2 ffff6690  .....H..[.....f.
 2f70 f30f1efa 488d0d85 3a000031 c04889ca  ....H...:..1.H..
 2f80 eb12660f 1f440000 83c00148 83c21083  ..f..D.....H....
 2f90 f8327414 393a75f0 489848c1 e0048b44  .2t.9:u.H.H....D
 2fa0 0104c30f 1f440000 b8050000 00c36690  .....D........f.
 2fb0 f30f1efa 488d0d45 3a000031 c04889ca  ....H..E:..1.H..
 2fc0 eb12660f 1f440000 83c00148 83c21083  ..f..D.....H....
 2fd0 f8327414 393a75f0 489848c1 e004488b  .2t.9:u.H.H...H.
 2fe0 440108c3 0f1f4000 31c0c30f 1f440000  D.....@.1....D..
 2ff0 f30f1efa 41544989 fc55488d 2d073a00  ....ATI..UH.-.:.
 3000 005331db eb16662e 0f1f8400 00000000  .S1...f.........
 3010 83c30148 83c51083 fb32742c 488b7500  ...H.....2t,H.u.
 3020 4c89e7e8 e8e1ffff 85c075e4 4863db48  L.........u.Hc.H
 3030 8d05ca39 000048c1 e3048b04 185b5d41  ...9..H......[]A
 3040 5cc3660f 1f440000 5bb83300 00005d41  \.f..D..[.3...]A
 3050 5cc36666 2e0f1f84 00000000 000f1f00  \.ff............
 3060 f30f1efa 8b0f4889 fe488d3d 90390000  ......H..H.=.9..
 3070 31c04889 faeb1566 0f1f8400 00000000  1.H....f........
 3080 83c00148 83c21083 f8327434 3b0a75f0  ...H.....2t4;.u.
 3090 489848c1 e004488b 4c070883 7e10050f  H.H...H.L...~...
 30a0 87260100 004883ec 088b4610 488d1511  .&...H....F.H...
 30b0 1e000048 63048248 01d03eff e00f1f00  ...Hc..H..>.....
 30c0 31c9ebd7 0f1f4000 488b5608 bf020000  1.....@.H.V.....
 30d0 0031c048 83c40848 8d351d1a 0000e95d  .1.H...H.5.....]
 30e0 e1ffff0f 1f440000 8b462048 83ec0848  .....D...F H...H
 30f0 8b5608bf 02000000 50448b46 1831c044  .V......PD.F.1.D
 3100 8b4e1c48 8d359c19 0000e831 e1ffff5f  .N.H.5.....1..._
 3110 41584883 c408c366 0f1f8400 00000000  AXH....f........
 3120 4883ec08 488b5608 ff7620bf 02000000  H...H.V..v .....
 3130 448b4e1c 31c0448b 4618488d 357b1900  D.N.1.D.F.H.5{..
 3140 00e8fae0 ffff595e 4883c408 c30f1f00  ......Y^H.......
 3150 488b5608 4c8b4e20 bf020000 0031c044  H.V.L.N .....1.D
 3160 8b461848 8d357f19 00004883 c408e9cd  .F.H.5....H.....
 3170 e0ffff0f 1f440000 8b461c48 83ec0848  .....D...F.H...H
 3180 8b5608bf 02000000 504c8b4e 2031c044  .V......PL.N 1.D
 3190 8b461848 8d353819 0000e8a1 e0ffff58  .F.H.58........X
 31a0 5a4883c4 08c3488b 0d733e00 00ba2a00  ZH....H..s>...*.
 31b0 0000be01 00000048 8d3d9216 0000e89d  .......H.=......
 31c0 e0ffff83 cfffe885 e0ffffc3 0f1f4000  ..............@.
 31d0 f30f1efa 41574156 41554154 55534889  ....AWAVAUATUSH.
 31e0 fb4883ec 188b0f48 893c2444 6be11a89  .H.....H.<$Dk...
 31f0 4c240c4d 63e44c89 e7e822e0 ffff488b  L$.Mc.L..."...H.
 3200 5b084885 c00f84dc 0100008b 4c240c49  [.H.........L$.I
 3210 89c748c7 c0ffffff ff85c90f 8ea70000  ..H.............
 3220 0031ed45 31f64c8d 2daf1c00 000f1f00  .1.E1.L.-.......
 3230 8b33488d 15c73700 0031c0eb 130f1f00  .3H...7..1......
 3240 83c00148 83c21083 f8320f84 60010000  ...H.....2..`...
 3250 3b3275ec 4898488d 3da33700 0048c1e0  ;2u.H.H.=.7..H..
 3260 044c8b44 0708837b 10057744 8b431049  .L.D...{..wD.C.I
 3270 63448500 4c01e83e ffe0660f 1f440000  cD..L..>..f..D..
 3280 4863c548 8d0d7718 0000be02 00000049  Hc.H..w........I
 3290 39c44889 c2498d3c 07490f43 d483c506  9.H..I.<.I.C....
 32a0 4829c231 c0e8e6df ffff488b 04248b08  H).1......H..$..
 32b0 4183c601 4883c328 4139ce0f 8c6fffff  A...H..(A9...o..
 32c0 ff4863c5 4883e801 41c60407 004883c4  .Hc.H...A....H..
 32d0 184c89f8 5b5d415c 415d415e 415fc390  .L..[]A\A]A^A_..
 32e0 4863c544 8b4b1848 8d0dea17 00004939  Hc.D.K.H......I9
 32f0 c44889c2 498d3c07 490f43d4 4829c28b  .H..I.<.I.C.H)..
 3300 431c50ff 7320be02 00000031 c0e87edf  C.P.s .....1..~.
 3310 ffff01c5 488b4424 108b0858 5aeb9190  ....H.D$...XZ...
 3320 4863c544 8b4b1848 8d0d7e17 00004939  Hc.D.K.H..~...I9
 3330 c44889c2 498d3c07 490f43d4 4829c28b  .H..I.<.I.C.H)..
 3340 4320508b 431c50eb bd0f1f80 00000000  C P.C.P.........
 3350 4863c544 8b4b1848 8d0d9117 00004939  Hc.D.K.H......I9
 3360 c44889c2 498d3c07 490f43d4 4883ec08  .H..I.<.I.C.H...
 3370 ff732048 29c2eb8e 0f1f8400 00000000  .s H)...........
 3380 4863c544 8b4b1848 8d0d3417 0000ff73  Hc.D.K.H..4....s
 3390 204939c4 4889c249 8d3c0749 0f43d448   I9.H..I.<.I.C.H
 33a0 29c28b43 1c50e95b ffffff0f 1f440000  )..C.P.[.....D..
 33b0 4531c0e9 aefeffff 0f1f8400 00000000  E1..............
 33c0 488b0d59 3c0000ba 2a000000 be010000  H..Y<...*.......
 33d0 00488d3d 78140000 e883deff ffbfffff  .H.=x...........
 33e0 ffffe869 deffff48 8d0d321b 0000ba06  ...i...H..2.....
 33f0 01000048 8d359216 0000488d 3d071700  ...H.5....H.=...
 3400 00e8cadd ffff662e 0f1f8400 00000000  ......f.........
 3410 f30f1efa 41564989 fe41554c 8d2d1e3c  ....AVI..AUL.-.<
 3420 00004154 5553488b 7f5031db e8fff4ff  ..ATUSH..P1.....
 3430 ff488d35 d2160000 bf020000 0089c231  .H.5...........1
 3440 c0e8fadd ffffeb12 0f1f8400 00000000  ................
 3450 4883c301 4883fb20 744e498b 7e5089de  H...H.. tNI.~P..
 3460 e8abf4ff ff4889c5 493944dd 0074e149  .....H..I9D..t.I
 3470 8b7e5089 dee896f4 ffff89da bf020000  .~P.............
 3480 004863db 4889c148 8d358716 000031c0  .Hc.H..H.5....1.
 3490 e8abddff ff49896c dd005b5d 415c415d  .....I.l..[]A\A]
 34a0 415ec30f 1f440000 5b488d3d 7a160000  A^...D..[H.=z...
 34b0 5d415c41 5d415ee9 e4dcffff 0f1f4000  ]A\A]A^.......@.
 34c0 f30f1efa 41554c8d 2d451600 0041544c  ....AUL.-E...ATL
 34d0 8d256b16 00005548 89fd5331 db4883ec  .%k...UH..S1.H..
 34e0 08488b7f 50e846f4 ffff488d 35191600  .H..P.F...H.5...
 34f0 00bf0200 000089c2 31c0e841 ddffff90  ........1..A....
 3500 488b7d50 89dee805 f4ffff89 da4c89e6  H.}P.........L..
 3510 bf020000 004889c1 31c0e821 ddffff83  .....H..1..!....
 3520 fb1f741c 4c89eebf 02000000 31c083c3  ..t.L.......1...
 3530 01e80add ffffebc8 0f1f8400 00000000  ................
 3540 4883c408 bf0a0000 005b5d41 5c415de9  H........[]A\A].
 3550 2cdcffff 66662e0f 1f840000 00000090  ,...ff..........
 3560 f30f1efa 41564155 41545548 89fd5348  ....AVAUATUH..SH
 3570 8b7f58e8 38ecffff 488d35cd 150000bf  ..X.8...H.5.....
 3580 02000000 4889c331 c0e8b2dc ffff4885  ....H..1......H.
 3590 db745d45 31ed4531 f64c8d25 b5150000  .t]E1.E1.L.%....
 35a0 488b7d58 4c89f6e8 14ecffff 84c07418  H.}XL.........t.
 35b0 0fb6d04c 89e6bf02 00000031 c0e87edc  ...L.......1..~.
 35c0 ffff41bd 01000000 4983c601 4c39f375  ..A.....I...L9.u
 35d0 cf4d85ed 741a5bbf 0a000000 5d415c41  .M..t.[.....]A\A
 35e0 5d415ee9 98dbffff 0f1f8400 00000000  ]A^.............
 35f0 488d3562 150000bf 02000000 31c0e83d  H.5b........1..=
 3600 dcffffeb d166662e 0f1f8400 00000000  .....ff.........
 3610 f30f1efa 41545548 89fd5348 8b7f60e8  ....ATUH..SH..`.
 3620 4ce1ffff 488d3d49 15000049 89d44889  L...H.=I...I..H.
 3630 c3e86adb ffff488b 4d38488b 554031c0  ..j...H.M8H.U@1.
 3640 488d3539 120000bf 02000000 e8efdbff  H.59............
 3650 ff488d3d 2c150000 e843dbff ff4c89e1  .H.=,....C...L..
 3660 4889dabf 02000000 488d3539 12000031  H.......H.59...1
 3670 c0e8cadb ffff660f efc04885 db742d78  ......f...H..t-x
 3680 4f660fef c9f2480f 2acb4d85 e4785f66  Of....H.*.M..x_f
 3690 0fefd2f2 490f2ad4 660f28c1 f20f5cc2  ....I.*.f.(...\.
 36a0 f20f5ec1 f20f5905 8c180000 5bbf0200  ..^...Y.....[...
 36b0 00005db8 01000000 488d35d2 14000041  ..].....H.5....A
 36c0 5ce97adb ffff662e 0f1f8400 00000000  \.z...f.........
 36d0 4889d883 e301660f efc948d1 e84809d8  H.....f...H..H..
 36e0 f2480f2a c8f20f58 c94d85e4 79a14c89  .H.*...X.M..y.L.
 36f0 e04183e4 01660fef d248d1e8 4c09e0f2  .A...f...H..L...
 3700 480f2ad0 f20f58d2 eb8e660f 1f440000  H.*...X...f..D..
 3710 f30f1efa 4155488d 158c1400 00415466  ....AUH......ATf
 3720 480f6ec2 488d15ac 14000055 534883ec  H.n.H......USH..
 3730 3864488b 04252800 00004889 44242848  8dH..%(...H.D$(H
 3740 8d057914 00006648 0f6ec848 8d059214  ..y...fH.n.H....
 3750 0000660f 6cc16648 0f6ed00f 29042466  ..f.l.fH.n..).$f
 3760 480f6ec2 660f6cc2 0f294424 1083fe03  H.n.f.l..)D$....
 3770 0f87dc00 000089f6 4889fd31 c0bf0200  ........H..1....
 3780 0000488b 14f4488d 35711400 0031db4c  ..H...H.5q...1.L
 3790 8d25ab13 00004c8d 2d751300 00e89eda  .%....L.-u......
 37a0 ffff488b 7d50e885 f1ffff48 8d355813  ..H.}P.....H.5X.
 37b0 0000bf02 00000089 c231c0e8 80daffff  .........1......
 37c0 488b7d50 89dee845 f1ffff89 da4c89e6  H.}P...E.....L..
 37d0 bf020000 004889c1 31c0e861 daffff83  .....H..1..a....
 37e0 fb1f741c 4c89eebf 02000000 31c083c3  ..t.L.......1...
 37f0 01e84ada ffffebc8 0f1f8400 00000000  ..J.............
 3800 bf0a0000 00e876d9 ffff4883 7d300075  ......v...H.}0.u
 3810 1f488b44 24286448 2b042528 00000075  .H.D$(dH+.%(...u
 3820 504883c4 385b5d41 5c415dc3 0f1f4000  PH..8[]A\A]...@.
 3830 488b4424 2864482b 04252800 00007531  H.D$(dH+.%(...u1
 3840 4883c438 4889ef5b 5d415c41 5de9befd  H..8H..[]A\A]...
 3850 ffff488d 0da71600 00ba8201 0000488d  ..H...........H.
 3860 35271200 00488d3d 64100000 e85fd9ff  5'...H.=d...._..
 3870 ffe83ad9 ffff                        ..:...          
Contents of section .fini:
 3878 f30f1efa 4883ec08 4883c408 c3        ....H...H....   
Contents of section .rodata:
 4000 01000200 00000000 63616368 655f616c  ........cache_al
 4010 6c6f6361 74653a20 63616368 6520636f  locate: cache co
 4020 6e666967 75726174 696f6e20 6572726f  nfiguration erro
 4030 722e2049 6e636f72 72656374 20617267  r. Incorrect arg
 4040 756d656e 74733a20 6e756d5f 63616368  uments: num_cach
 4050 655f6c69 6e657320 6d757374 20626520  e_lines must be 
 4060 70657266 6563746c 79206469 76697369  perfectly divisi
 4070 626c6520 6279206e 756d5f73 6574730a  ble by num_sets.
 4080 00000000 00000000 4572726f 7220696e  ........Error in
 4090 20617267 756d656e 74732074 6f207072   arguments to pr
 40a0 6f636573 736f725f 656d756c 6174655f  ocessor_emulate_
 40b0 636e746c 666c6f77 6f70733a 2070726f  cntlflowops: pro
 40c0 63657373 6f722d3e 7273206d 75737420  cessor->rs must 
 40d0 62652070 6f70756c 61746564 2e0a0000  be populated....
 40e0 00000000 00000000 4572726f 7220696e  ........Error in
 40f0 20617267 756d656e 74732074 6f207072   arguments to pr
 4100 6f636573 736f725f 656d756c 6174655f  ocessor_emulate_
 4110 636e746c 666c6f77 6f70733a 2060696e  cntlflowops: `in
 4120 73746020 6d757374 20626520 6e6f6e2d  st` must be non-
 4130 4e554c4c 2e0a0000 4572726f 7220696e  NULL....Error in
 4140 20617267 756d656e 74732074 6f207072   arguments to pr
 4150 6f636573 736f725f 656d756c 6174655f  ocessor_emulate_
 4160 636e746c 666c6f77 6f70733a 20606560  cntlflowops: `e`
 4170 206d7573 74206265 206e6f6e 2d4e554c   must be non-NUL
 4180 4c2e0a00 00000000 4572726f 7220696e  L.......Error in
 4190 20617267 756d656e 74732074 6f207072   arguments to pr
 41a0 6f636573 736f725f 656d756c 6174655f  ocessor_emulate_
 41b0 636e746c 666c6f77 6f70733a 2070726f  cntlflowops: pro
 41c0 63657373 6f722d3e 696e7374 7273206d  cessor->instrs m
 41d0 75737420 62652070 6f70756c 61746564  ust be populated
 41e0 2e0a0000 00000000 4572726f 7220696e  ........Error in
 41f0 20617267 756d656e 74732074 6f207072   arguments to pr
 4200 6f636573 736f725f 656d756c 6174655f  ocessor_emulate_
 4210 636e746c 666c6f77 6f70733a 2070726f  cntlflowops: pro
 4220 63657373 6f722d3e 696e7374 72732d3e  cessor->instrs->
 4230 696e7374 72756374 696f6e73 206d7573  instructions mus
 4240 74206265 20706f70 756c6174 65642e0a  t be populated..
 4250 00000000 00000000 496e7374 72756374  ........Instruct
 4260 696f6e20 77697468 6f757420 70726f70  ion without prop
 4270 65722052 52522066 6f726d61 742e0000  er RRR format...
 4280 496e7374 72756374 696f6e20 77697468  Instruction with
 4290 6f757420 70726f70 65722052 52492066  out proper RRI f
 42a0 6f726d61 742e0000 496e7374 72756374  ormat...Instruct
 42b0 696f6e20 77697468 6f757420 70726f70  ion without prop
 42c0 65722052 4f522066 6f726d61 742e0000  er ROR format...
 42d0 496e7374 72756374 696f6e20 77697468  Instruction with
 42e0 6f757420 70726f70 65722052 4920666f  out proper RI fo
 42f0 726d6174 2e000000 496e7374 72756374  rmat....Instruct
 4300 696f6e20 77697468 6f757420 70726f70  ion without prop
 4310 65722045 43414c4c 20666f72 6d61742e  er ECALL format.
 4320 00000000 00000000 43616e6e 6f742072  ........Cannot r
 4330 65616420 70726f67 72616d20 66726f6d  ead program from
 4340 20737464 696e2e00 496e7374 72756374   stdin..Instruct
 4350 696f6e20 70617273 65206661 696c6564  ion parse failed
 4360 2e204469 66666572 656e6365 733a0a00  . Differences:..
 4370 6c696e65 2025642c 20696e70 75742070  line %d, input p
 4380 726f6772 616d3a0a 25730a70 726f6365  rogram:.%s.proce
 4390 73736564 20696e73 74727563 74696f6e  ssed instruction
 43a0 733a0a25 730a0000 4572726f 723a206d  s:.%s...Error: m
 43b0 656d6f72 795f6765 74627974 653a2061  emory_getbyte: a
 43c0 64647265 73732025 6c752069 73206f75  ddress %lu is ou
 43d0 74206f66 20626f75 6e64730a 00000000  t of bounds.....
 43e0 4572726f 7220696e 20617267 756d656e  Error in argumen
 43f0 74732074 6f207072 6f636573 736f725f  ts to processor_
 4400 656d756c 6174655f 6d656d6f 70733a20  emulate_memops: 
 4410 70726f63 6573736f 722d3e72 73206d75  processor->rs mu
 4420 73742062 6520706f 70756c61 7465642e  st be populated.
 4430 0a000000 00000000 4572726f 7220696e  ........Error in
 4440 20617267 756d656e 74732074 6f207072   arguments to pr
 4450 6f636573 736f725f 656d756c 6174655f  ocessor_emulate_
 4460 6d656d6f 70733a20 60696e73 7460206d  memops: `inst` m
 4470 75737420 6265206e 6f6e2d4e 554c4c2e  ust be non-NULL.
 4480 0a000000 00000000 4572726f 7220696e  ........Error in
 4490 20617267 756d656e 74732074 6f207072   arguments to pr
 44a0 6f636573 736f725f 656d756c 6174655f  ocessor_emulate_
 44b0 6d656d6f 70733a20 60656020 6d757374  memops: `e` must
 44c0 20626520 6e6f6e2d 4e554c4c 2e0a0000   be non-NULL....
 44d0 4572726f 7220696e 20617267 756d656e  Error in argumen
 44e0 74732074 6f207072 6f636573 736f725f  ts to processor_
 44f0 656d756c 6174655f 6d656d6f 70733a20  emulate_memops: 
 4500 70726f63 6573736f 722d3e6d 656d206d  processor->mem m
 4510 75737420 62652070 6f70756c 61746564  ust be populated
 4520 2e0a0000 00000000 4572726f 7220696e  ........Error in
 4530 20617267 756d656e 74732074 6f207072   arguments to pr
 4540 6f636573 736f725f 656d756c 6174655f  ocessor_emulate_
 4550 6d656d6f 70733a20 70726f63 6573736f  memops: processo
 4560 722d3e69 6e737472 73206d75 73742062  r->instrs must b
 4570 6520706f 70756c61 7465642e 0a000000  e populated.....
 4580 4572726f 7220696e 20617267 756d656e  Error in argumen
 4590 74732074 6f207072 6f636573 736f725f  ts to processor_
 45a0 656d756c 6174655f 6d656d6f 70733a20  emulate_memops: 
 45b0 70726f63 6573736f 722d3e69 6e737472  processor->instr
 45c0 732d3e69 6e737472 75637469 6f6e7320  s->instructions 
 45d0 6d757374 20626520 706f7075 6c617465  must be populate
 45e0 642e0a00 00000000 4572726f 723a206d  d.......Error: m
 45f0 656d6f72 79206163 63657373 206f7574  emory access out
 4600 206f6620 626f756e 64733a20 61646472   of bounds: addr
 4610 3d307825 6c782028 70633d30 78256c78  =0x%lx (pc=0x%lx
 4620 290a0000 00000000 2d2d2d2d 2d2d2d2d  ).......--------
 4630 2d2d2d2d 2d2d2d2d 2d2d2d2d 2d2d2d2d  ----------------
 4640 2d2d2d2d 2d2d2d2d 2d2d2d2d 2d2d2d2d  ----------------
 4650 2d2d2d2d 2d2d2d2d 2d2d2d2d 2d2d2d2d  ----------------
 4660 2d2d2d2d 2d2d2d2d 2d2d2d2d 2d2d2d2d  ----------------
 4670 2d2d2d2d 2d2d2d2d 2d2d2d2d 2d2d2d2d  ----------------
 4680 2d2d2d2d 2d2d2d2d 2d2d2d2d 2d2d2d2d  ----------------
 4690 2d2d2d2d 2d2d2d2d 2d2d2d00 00000000  -----------.....
 46a0 4572726f 7220696e 20617267 756d656e  Error in argumen
 46b0 74732074 6f207072 6f636573 736f725f  ts to processor_
 46c0 656d756c 6174655f 7265676f 70733a20  emulate_regops: 
 46d0 70726f63 6573736f 722d3e72 73206d75  processor->rs mu
 46e0 73742062 6520706f 70756c61 7465642e  st be populated.
 46f0 0a000000 00000000 4572726f 7220696e  ........Error in
 4700 20617267 756d656e 74732074 6f207072   arguments to pr
 4710 6f636573 736f725f 656d756c 6174655f  ocessor_emulate_
 4720 7265676f 70733a20 60696e73 7460206d  regops: `inst` m
 4730 75737420 6265206e 6f6e2d4e 554c4c2e  ust be non-NULL.
 4740 0a000000 00000000 4572726f 7220696e  ........Error in
 4750 20617267 756d656e 74732074 6f207072   arguments to pr
 4760 6f636573 736f725f 656d756c 6174655f  ocessor_emulate_
 4770 7265676f 70733a20 60656020 6d757374  regops: `e` must
 4780 20626520 6e6f6e2d 4e554c4c 2e0a0000   be non-NULL....
 4790 4572726f 7220696e 20617267 756d656e  Error in argumen
 47a0 74732074 6f207072 6f636573 736f725f  ts to processor_
 47b0 656d756c 6174655f 7265676f 70733a20  emulate_regops: 
 47c0 70726f63 6573736f 722d3e69 6e737472  processor->instr
 47d0 73206d75 73742062 6520706f 70756c61  s must be popula
 47e0 7465642e 0a000000 4572726f 7220696e  ted.....Error in
 47f0 20617267 756d656e 74732074 6f207072   arguments to pr
 4800 6f636573 736f725f 656d756c 6174655f  ocessor_emulate_
 4810 7265676f 70733a20 70726f63 6573736f  regops: processo
 4820 722d3e69 6e737472 732d3e69 6e737472  r->instrs->instr
 4830 75637469 6f6e7320 6d757374 20626520  uctions must be 
 4840 706f7075 6c617465 642e0a00 00000000  populated.......
 4850 73747269 6e676966 793a2069 6e737472  stringify: instr
 4860 75637469 6f6e7320 696e636c 75646520  uctions include 
 4870 616e2065 72726f72 2e0a0000 00000000  an error........
 4880 43616368 65204c69 6e65733a 20256c64  Cache Lines: %ld
 4890 2c204361 63686520 53657473 3a20256c  , Cache Sets: %l
 48a0 640a0000 00000000 43616368 65204163  d.......Cache Ac
 48b0 63657373 65733a20 256c752c 20436163  cesses: %lu, Cac
 48c0 6865204d 69737365 733a2025 6c750a00  he Misses: %lu..
 48d0 65203c3d 20455843 45505449 4f4e5f55  e <= EXCEPTION_U
 48e0 4e4b4e4f 574e5f53 59534341 4c4c0063  NKNOWN_SYSCALL.c
 48f0 61636865 2e630063 2d3e6361 6368655f  ache.c.c->cache_
 4900 6c696e65 73004e6f 7420656e 6f756768  lines.Not enough
 4910 20696e70 7574206c 696e6573 2e004572   input lines..Er
 4920 726f723a 2025730a 00696e73 74727563  ror: %s..instruc
 4930 74696f6e 732e6300 6f757400 256c7820  tions.c.out.%lx 
 4940 256c7820 256c7820 256c7800 46697273  %lx %lx %lx.Firs
 4950 74206c69 6e652063 616e2774 20706172  t line can't par
 4960 73652e00 696e7374 73002573 20782564  se..insts.%s x%d
 4970 2c782564 2c782564 00257320 7825642c  ,x%d,x%d.%s x%d,
 4980 7825642c 25640025 73207825 642c2564  x%d,%d.%s x%d,%d
 4990 28782564 29002573 20782564 2c256400  (x%d).%s x%d,%d.
 49a0 6563616c 6c00496e 76616c69 6420696e  ecall.Invalid in
 49b0 73747275 6374696f 6e2e0053 74617274  struction..Start
 49c0 696e6720 70726f67 72616d0a 002d2d6e  ing program..--n
 49d0 6f2d7072 696e742d 696e7374 72002d2d  o-print-instr.--
 49e0 6e6f2d70 72696e74 2d726567 73002d2d  no-print-regs.--
 49f0 6e6f2d70 72696e74 2d636163 6865002d  no-print-cache.-
 4a00 2d636163 68652d76 616c7565 733d256c  -cache-values=%l
 4a10 642c256c 64004361 6e6e6f74 20706172  d,%ld.Cannot par
 4a20 73652070 726f6772 616d2e00 6d61696e  se program..main
 4a30 2e630070 5f6c696e 6573203d 3d20735f  .c.p_lines == s_
 4a40 6c696e65 73006d65 6d6f7279 2e63006d  lines.memory.c.m
 4a50 2d3e6d65 6d007072 6f636573 736f722e  ->mem.processor.
 4a60 63007000 72656769 73746572 732e6300  c.p.registers.c.
 4a70 696e7374 2d3e666d 745f7479 7065203d  inst->fmt_type =
 4a80 3d20464d 545f4543 414c4c00 7574696c  = FMT_ECALL.util
 4a90 69746965 732e6300 6c696e65 735b6f66  ities.c.lines[of
 4aa0 66736574 5d003078 256c7809 25732078  fset].0x%lx.%s x
 4ab0 25642c78 25642c78 25640a00 3078256c  %d,x%d,x%d..0x%l
 4ac0 78092573 20782564 2c782564 2c256c64  x.%s x%d,x%d,%ld
 4ad0 0a003078 256c7809 25732078 25642c25  ..0x%lx.%s x%d,%
 4ae0 6c642878 2564290a 00307825 6c780925  ld(x%d)..0x%lx.%
 4af0 73207825 642c256c 640a0030 78256c78  s x%d,%ld..0x%lx
 4b00 09656361 6c6c0a00 6f007063 3a203078  .ecall..o.pc: 0x
 4b10 25782c20 006d6f64 69666965 64207825  %x, .modified x%
 4b20 753a2030 78256c78 0a006e6f 20726567  u: 0x%lx..no reg
 4b30 69737465 7273206d 6f646966 6965642e  isters modified.
 4b40 00782575 3a203078 256c7800 4d656d6f  .x%u: 0x%lx.Memo
 4b50 72793a20 00257820 004e6f20 73746f72  ry: .%x .No stor
 4b60 65207065 72666f72 6d656420 736f2066  e performed so f
 4b70 61722e00 43616368 65205365 7474696e  ar..Cache Settin
 4b80 67733a00 43616368 65205374 6174653a  gs:.Cache State:
 4b90 00436163 68652048 69742052 6174653a  .Cache Hit Rate:
 4ba0 20252e32 6625250a 00496e73 74727563   %.2f%%..Instruc
 4bb0 74696f6e 20657863 65707469 6f6e004d  tion exception.M
 4bc0 656d6f72 79206163 63657373 20657863  emory access exc
 4bd0 65707469 6f6e0050 726f6365 73732065  eption.Process e
 4be0 78697400 556e6b6e 6f776e20 73797363  xit.Unknown sysc
 4bf0 616c6c20 65786365 7074696f 6e002573  all exception.%s
 4c00 2c207265 67697374 65722073 74617465  , register state
 4c10 3a0a0061 75697063 00616464 00616464  :..auipc.add.add
 4c20 77006164 64690061 64646977 00737562  w.addi.addiw.sub
 4c30 00737562 7700736c 6c00736c 6c770073  .subw.sll.sllw.s
 4c40 726c0073 726c7700 73726100 73726177  rl.srlw.sra.sraw
 4c50 00736c6c 6900736c 6c697700 73726c69  .slli.slliw.srli
 4c60 0073726c 69770073 72616900 73726169  .srliw.srai.srai
 4c70 7700616e 6400616e 64690078 6f720078  w.and.andi.xor.x
 4c80 6f726900 6c756900 73620073 68007377  ori.lui.sb.sh.sw
 4c90 00736400 6c62006c 68006c77 75006c62  .sd.lb.lh.lwu.lb
 4ca0 75006c68 7500736c 7400736c 74750073  u.lhu.slt.sltu.s
 4cb0 6c746900 736c7469 75006265 7100626e  lti.sltiu.beq.bn
 4cc0 6500626c 74006267 6500626c 74750062  e.blt.bge.bltu.b
 4cd0 67657500 6a616c00 6a616c72 00000000  geu.jal.jalr....
 4ce0 63616368 655f616c 6c6f6361 74650000  cache_allocate..
 4cf0 60cdffff 78cdffff c0ccffff c0ccffff  `...x...........
 4d00 c0ccffff c0ccffff c0ccffff c0ccffff  ................
 4d10 c0ccffff c0ccffff c0ccffff c0ccffff  ................
 4d20 c0ccffff 90cdffff c0cdffff f0cdffff  ................
 4d30 20ceffff 50ceffff 80ceffff 00000000   ...P...........
 4d40 696e7374 72756374 696f6e73 5f706172  instructions_par
 4d50 73650000 00000000 00000000 00000000  se..............
 4d60 66696e64 5f696e73 74727563 74696f6e  find_instruction
 4d70 73006d61 696e0000 00000000 00000000  s.main..........
 4d80 01000000 00000000 01000000 00000000  ................
 4d90 50d6ffff 00d6ffff 80d8ffff e0d7ffff  P...............
 4da0 30d8ffff a0d6ffff f0d6ffff 40d7ffff  0...........@...
 4db0 90d7ffff 50d5ffff b0d5ffff 00000000  ....P...........
 4dc0 6d656d6f 72795f61 6c6c6f63 00000000  memory_alloc....
 4dd0 70726f63 6573736f 725f616c 6c6f6300  processor_alloc.
 4de0 80dcffff 80deffff 58deffff 80dcffff  ........X.......
 4df0 80dcffff 38deffff 10deffff e8ddffff  ....8...........
 4e00 c0ddffff 98ddffff 70ddffff 48ddffff  ........p...H...
 4e10 20ddffff 80dcffff 80dcffff 80dcffff   ...............
 4e20 80dcffff 80dcffff 80dcffff 00ddffff  ................
 4e30 80dcffff e0dcffff 80dcffff c0dcffff  ................
 4e40 50dfffff 36dfffff 20dcffff 20dcffff  P...6... ... ...
 4e50 20dcffff 20dcffff 20dcffff 20dcffff   ... ... ... ...
 4e60 20dcffff 20dcffff 1adfffff fcdeffff   ... ...........
 4e70 e0deffff c2deffff a6deffff 88deffff  ................
 4e80 20dcffff 6fdeffff 20dcffff 56deffff   ...o... ...V...
 4e90 20dcffff 3ddeffff 00000000 00000000   ...=...........
 4ea0 70726f63 6573736f 725f656d 756c6174  processor_emulat
 4eb0 655f7265 676f7073 00000000 00000000  e_regops........
 4ec0 0a000000 24e2ffff 5ce2ffff 8ce2ffff  ....$...\.......
 4ed0 b4e2ffff 04e2ffff e2e2ffff 44e4ffff  ............D...
 4ee0 a4e4ffff 74e4ffff 04e4ffff a4e3ffff  ....t...........
 4ef0 e4e4ffff 00000000 00000000 00000000  ................
 4f00 70726f63 6573736f 725f7072 696e745f  processor_print_
 4f10 65786365 7074696f 6e000000 00000000  exception.......
 4f20 73747269 6e676966 795f7072 6f677261  stringify_progra
 4f30 6d006c69 6e657300 00000000 00005940  m.lines.......Y@
Contents of section .eh_frame_hdr:
 4f40 011b033b 5c010000 2a000000 e0c0ffff  ...;\...*.......
 4f50 90010000 20c2ffff b8010000 30c2ffff  .... .......0...
 4f60 d0010000 60c3ffff 40030000 10c7ffff  ....`...@.......
 4f70 78010000 00c8ffff e8010000 30c8ffff  x...........0...
 4f80 fc010000 40c8ffff 10020000 10c9ffff  ....@...........
 4f90 40020000 30c9ffff 60020000 60c9ffff  @...0...`...`...
 4fa0 7c020000 c0ccffff d0020000 80d1ffff  |...............
 4fb0 20030000 a0d1ffff 98030000 d0d1ffff   ...............
 4fc0 b4030000 50d2ffff e0030000 70d2ffff  ....P.......p...
 4fd0 fc030000 80d2ffff 10040000 c0d2ffff  ................
 4fe0 24040000 80d7ffff 70040000 b0d8ffff  $.......p.......
 4ff0 ac040000 40d9ffff ec040000 80d9ffff  ....@...........
 5000 08050000 a0d9ffff 24050000 c0d9ffff  ........$.......
 5010 40050000 d0d9ffff 54050000 e0d9ffff  @.......T.......
 5020 68050000 f0d9ffff 7c050000 00daffff  h.......|.......
 5030 90050000 10daffff a4050000 d0deffff  ................
 5040 d0050000 10e0ffff 1c060000 30e0ffff  ............0...
 5050 38060000 70e0ffff 4c060000 b0e0ffff  8...p...L.......
 5060 60060000 20e1ffff 98060000 90e2ffff  `... ...........
 5070 f8060000 d0e4ffff 6c070000 80e5ffff  ........l.......
 5080 b8070000 20e6ffff f0070000 d0e6ffff  .... ...........
 5090 30080000 d0e7ffff 60080000           0.......`...    
Contents of section .eh_frame:
 50a0 14000000 00000000 017a5200 01781001  .........zR..x..
 50b0 1b0c0708 90010000 14000000 1c000000  ................
 50c0 90c5ffff 26000000 00440710 00000000  ....&....D......
 50d0 24000000 34000000 48bfffff 40010000  $...4...H...@...
 50e0 000e1046 0e184a0f 0b770880 003f1a39  ...F..J..w...?.9
 50f0 2a332422 00000000 14000000 5c000000  *3$"........\...
 5100 60c0ffff 10000000 00000000 00000000  `...............
 5110 14000000 74000000 58c0ffff 30010000  ....t...X...0...
 5120 00000000 00000000 10000000 8c000000  ................
 5130 10c6ffff 2e000000 00000000 10000000  ................
 5140 a0000000 2cc6ffff 0d000000 00000000  ....,...........
 5150 2c000000 b4000000 28c6ffff c8000000  ,.......(.......
 5160 004b0e10 8c02470e 18860341 0e208304  .K....G....A. ..
 5170 024e0a0e 18410e10 420e0841 0b000000  .N...A..B..A....
 5180 1c000000 e4000000 c8c6ffff 19000000  ................
 5190 00450e10 83024f0e 08000000 00000000  .E....O.........
 51a0 18000000 04010000 c8c6ffff 2d000000  ............-...
 51b0 00410e10 410e0852 0e100000 50000000  .A..A..R....P...
 51c0 20010000 dcc6ffff 57030000 00460e10   .......W....F..
 51d0 8e02420e 188d0342 0e208c04 410e2886  ..B....B. ..A.(.
 51e0 05410e30 830602b5 0a0e2841 0e20420e  .A.0......(A. B.
 51f0 18420e10 420e0848 0b02410a 0e28460e  .B..B..H..A..(F.
 5200 20420e18 420e1042 0e08430b 00000000   B..B..B..C.....
 5210 4c000000 74010000 e8c9ffff bf040000  L...t...........
 5220 00460e10 8f02420e 188e0342 0e208d04  .F....B....B. ..
 5230 450e288c 05410e30 8606410e 38830747  E.(..A.0..A.8..G
 5240 0ea00303 b2020a0e 38410e30 410e2842  ........8A.0A.(B
 5250 0e20420e 18420e10 420e0844 0b000000  . B..B..B..D....
 5260 1c000000 c4010000 58ceffff 1f000000  ........X.......
 5270 00450e10 8302550e 08000000 00000000  .E....U.........
 5280 54000000 e4010000 18c0ffff a7030000  T...............
 5290 00460e10 8f02420e 188e0342 0e208d04  .F....B....B. ..
 52a0 420e288c 05410e30 8606410e 38830748  B.(..A.0..A.8..H
 52b0 0c0bb880 01510d07 470ec081 01039702  .....Q..G.......
 52c0 0a0e3843 0e30410e 28420e20 420e1842  ..8C.0A.(B. B..B
 52d0 0e10420e 08410b00 18000000 3c020000  ..B..A......<...
 52e0 00ceffff 2d000000 00410e10 410e0852  ....-....A..A..R
 52f0 0e100000 28000000 58020000 14ceffff  ....(...X.......
 5300 80000000 00450e10 8602490e 18830344  .....E....I....D
 5310 0e206a0a 0e18440e 10410e08 410b0000  . j...D..A..A...
 5320 18000000 84020000 68ceffff 19000000  ........h.......
 5330 00450e10 83024f0e 08000000 10000000  .E....O.........
 5340 a0020000 6cceffff 09000000 00000000  ....l...........
 5350 10000000 b4020000 68ceffff 38000000  ........h...8...
 5360 00530e10 48000000 c8020000 94ceffff  .S..H...........
 5370 b3040000 00460e10 8f02420e 188e0342  .....F....B....B
 5380 0e208d04 420e288c 05410e30 8606410e  . ..B.(..A.0..A.
 5390 38830744 0e5002bc 0a0e3843 0e30410e  8..D.P....8C.0A.
 53a0 28420e20 420e1842 0e10420e 08460b00  (B. B..B..B..F..
 53b0 38000000 14030000 08d3ffff 2c010000  8...........,...
 53c0 00460e10 8d02490e 188c0341 0e208604  .F....I....A. ..
 53d0 440e2883 05440e40 0308010a 0e28410e  D.(..D.@.....(A.
 53e0 20410e18 420e1042 0e08410b 3c000000   A..B..B..A.<...
 53f0 50030000 fcd3ffff 90000000 00460e10  P............F..
 5400 8e024a0e 188d0345 0e208c04 440e2886  ..J....E. ..D.(.
 5410 05440e30 8306024c 0a0e2841 0e20420e  .D.0...L..(A. B.
 5420 18420e10 420e0841 0b000000 18000000  .B..B..A........
 5430 90030000 4cd4ffff 3b000000 00450e10  ....L...;....E..
 5440 8302710e 08000000 18000000 ac030000  ..q.............
 5450 70d4ffff 1c000000 00410e10 410e0844  p........A..A..D
 5460 0e100000 18000000 c8030000 74d4ffff  ............t...
 5470 20000000 00450e10 83025a0e 08000000   ....E....Z.....
 5480 10000000 e4030000 78d4ffff 09000000  ........x.......
 5490 00000000 10000000 f8030000 74d4ffff  ............t...
 54a0 0b000000 00000000 10000000 0c040000  ................
 54b0 70d4ffff 0b000000 00000000 10000000  p...............
 54c0 20040000 6cd4ffff 0b000000 00000000   ...l...........
 54d0 10000000 34040000 68d4ffff 0c000000  ....4...h.......
 54e0 00000000 28000000 48040000 64d4ffff  ....(...H...d...
 54f0 b4040000 00450e10 8602410e 18830344  .....E....A....D
 5500 0e20027c 0a0e1843 0e10410e 08460b00  . .|...C..A..F..
 5510 48000000 74040000 f8d8ffff 40010000  H...t.......@...
 5520 00460e10 8f02420e 188e0342 0e208d04  .F....B....B. ..
 5530 450e288c 05440e30 8606410e 38830744  E.(..D.0..A.8..D
 5540 0e6002d7 0a0e3844 0e30410e 28420e20  .`....8D.0A.(B. 
 5550 420e1842 0e10420e 08410b00 18000000  B..B..B..A......
 5560 c0040000 ecd9ffff 1e000000 00450e10  .............E..
 5570 8302540e 08000000 10000000 dc040000  ..T.............
 5580 f0d9ffff 3e000000 00000000 10000000  ....>...........
 5590 f0040000 1cdaffff 3b000000 00000000  ........;.......
 55a0 34000000 04050000 48daffff 62000000  4.......H...b...
 55b0 00460e10 8c02440e 18860348 0e208304  .F....D....H. ..
 55c0 7c0a0e18 410e1042 0e08470b 410e1846  |...A..B..G.A..F
 55d0 0e10420e 08000000 5c000000 3c050000  ..B.....\...<...
 55e0 80daffff 6c010000 0002490e 10570e08  ....l.....I..W..
 55f0 480e104f 0a0e0851 0b470e18 4a0e2057  H..O...Q.G..J. W
 5600 0e18420e 10440a0e 084a0b44 0e18470e  ..B..D...J.D..G.
 5610 205c0e18 410e1044 0a0e0844 0b5e0a0e   \..A..D...D.^..
 5620 084a0b47 0e184a0e 20570e18 410e1044  .J.G..J. W..A..D
 5630 0a0e0841 0b650e08 70000000 9c050000  ...A.e..p.......
 5640 90dbffff 36020000 00460e10 8f02420e  ....6....F....B.
 5650 188e0342 0e208d04 420e288c 05410e30  ...B. ..B.(..A.0
 5660 8606410e 38830747 0e5002ec 0a0e3844  ..A.8..G.P....8D
 5670 0e30410e 28420e20 420e1842 0e10420e  .0A.(B. B..B..B.
 5680 08420b63 0e58430e 60560e58 410e5066  .B.c.XC.`V.XA.Pf
 5690 0a0e5844 0e60490b 600a0e58 430e604d  ..XD.`I.`..XC.`M
 56a0 0b510a0e 58550e60 4a0b0000 48000000  .Q..XU.`J...H...
 56b0 10060000 5cddffff ac000000 00460e10  ....\........F..
 56c0 8e02450e 188d0349 0e208c04 410e2886  ..E....I. ..A.(.
 56d0 05410e30 83060275 0a0e2841 0e20420e  .A.0...u..(A. B.
 56e0 18420e10 420e0846 0b410e28 480e2042  .B..B..F.A.(H. B
 56f0 0e18420e 10420e08 34000000 5c060000  ..B..B..4...\...
 5700 c0ddffff 94000000 00460e10 8d02490e  .........F....I.
 5710 188c0348 0e208604 440e2883 05460e30  ...H. ..D.(..F.0
 5720 02630e28 460e2041 0e18420e 10420e08  .c.(F. A..B..B..
 5730 3c000000 94060000 28deffff a5000000  <.......(.......
 5740 00460e10 8e02420e 188d0342 0e208c04  .F....B....B. ..
 5750 410e2886 05440e30 83060268 0a0e2846  A.(..D.0...h..(F
 5760 0e20420e 18420e10 420e084d 0b000000  . B..B..B..M....
 5770 2c000000 d4060000 98deffff fa000000  ,...............
 5780 00460e10 8c02410e 18860344 0e208304  .F....A....D. ..
 5790 02920a0e 18460e10 4e0e084f 0b000000  .....F..N..O....
 57a0 4c000000 04070000 68dfffff 66010000  L.......h...f...
 57b0 00460e10 8d02490e 188c034d 0e208604  .F....I....M. ..
 57c0 410e2883 05440e60 02f40a0e 28410e20  A.(..D.`....(A. 
 57d0 410e1842 0e10420e 08450b54 0a0e2844  A..B..B..E.T..(D
 57e0 0e20410e 18420e10 420e0845 0b000000  . A..B..B..E....
 57f0 00000000                             ....            
Contents of section .init_array:
 69f0 30170000 00000000                    0.......        
Contents of section .fini_array:
 69f8 f0160000 00000000                    ........        
Contents of section .data.rel.ro:
 6a00 2f000000 02000000 134c0000 00000000  /........L......
 6a10 01000000 00000000 194c0000 00000000  .........L......
 6a20 02000000 00000000 1d4c0000 00000000  .........L......
 6a30 03000000 01000000 224c0000 00000000  ........"L......
 6a40 04000000 01000000 274c0000 00000000  ........'L......
 6a50 05000000 00000000 2d4c0000 00000000  ........-L......
 6a60 06000000 00000000 314c0000 00000000  ........1L......
 6a70 07000000 00000000 364c0000 00000000  ........6L......
 6a80 08000000 00000000 3a4c0000 00000000  ........:L......
 6a90 09000000 00000000 3f4c0000 00000000  ........?L......
 6aa0 0a000000 00000000 434c0000 00000000  ........CL......
 6ab0 0b000000 00000000 484c0000 00000000  ........HL......
 6ac0 0c000000 00000000 4c4c0000 00000000  ........LL......
 6ad0 0d000000 01000000 514c0000 00000000  ........QL......
 6ae0 0e000000 01000000 564c0000 00000000  ........VL......
 6af0 0f000000 01000000 5c4c0000 00000000  ........\L......
 6b00 10000000 01000000 614c0000 00000000  ........aL......
 6b10 11000000 01000000 674c0000 00000000  ........gL......
 6b20 12000000 01000000 6c4c0000 00000000  ........lL......
 6b30 13000000 00000000 7c4c0000 00000000  ........|L......
 6b40 14000000 01000000 804c0000 00000000  .........L......
 6b50 15000000 00000000 724c0000 00000000  ........rL......
 6b60 16000000 01000000 764c0000 00000000  ........vL......
 6b70 17000000 00000000 7b4c0000 00000000  ........{L......
 6b80 18000000 01000000 7f4c0000 00000000  .........L......
 6b90 19000000 02000000 844c0000 00000000  .........L......
 6ba0 1e000000 03000000 884c0000 00000000  .........L......
 6bb0 1f000000 03000000 8b4c0000 00000000  .........L......
 6bc0 20000000 03000000 8e4c0000 00000000   ........L......
 6bd0 28000000 03000000 914c0000 00000000  (........L......
 6be0 21000000 03000000 944c0000 00000000  !........L......
 6bf0 22000000 03000000 974c0000 00000000  "........L......
 6c00 23000000 03000000 3c4c0000 00000000  #.......<L......
 6c10 26000000 03000000 9a4c0000 00000000  &........L......
 6c20 27000000 03000000 134a0000 00000000  '........J......
 6c30 24000000 03000000 9e4c0000 00000000  $........L......
 6c40 25000000 03000000 a24c0000 00000000  %........L......
 6c50 1a000000 00000000 a64c0000 00000000  .........L......
 6c60 1b000000 00000000 aa4c0000 00000000  .........L......
 6c70 1c000000 01000000 af4c0000 00000000  .........L......
 6c80 1d000000 01000000 b44c0000 00000000  .........L......
 6c90 29000000 01000000 ba4c0000 00000000  )........L......
 6ca0 2a000000 01000000 be4c0000 00000000  *........L......
 6cb0 2b000000 01000000 c24c0000 00000000  +........L......
 6cc0 2c000000 01000000 c64c0000 00000000  ,........L......
 6cd0 2d000000 01000000 ca4c0000 00000000  -........L......
 6ce0 2e000000 01000000 cf4c0000 00000000  .........L......
 6cf0 30000000 02000000 d44c0000 00000000  0........L......
 6d00 31000000 03000000 d84c0000 00000000  1........L......
 6d10 00000000 04000000 a0490000 00000000  .........I......
Contents of section .dynamic:
 6d20 01000000 00000000 d7000000 00000000  ................
 6d30 0c000000 00000000 00100000 00000000  ................
 6d40 0d000000 00000000 78380000 00000000  ........x8......
 6d50 19000000 00000000 f0690000 00000000  .........i......
 6d60 1b000000 00000000 08000000 00000000  ................
 6d70 1a000000 00000000 f8690000 00000000  .........i......
 6d80 1c000000 00000000 08000000 00000000  ................
 6d90 f5feff6f 00000000 b0030000 00000000  ...o............
 6da0 05000000 00000000 48060000 00000000  ........H.......
 6db0 06000000 00000000 d8030000 00000000  ................
 6dc0 0a000000 00000000 5d010000 00000000  ........].......
 6dd0 0b000000 00000000 18000000 00000000  ................
 6de0 15000000 00000000 00000000 00000000  ................
 6df0 03000000 00000000 106f0000 00000000  .........o......
 6e00 02000000 00000000 c8010000 00000000  ................
 6e10 14000000 00000000 07000000 00000000  ................
 6e20 17000000 00000000 c80d0000 00000000  ................
 6e30 07000000 00000000 40080000 00000000  ........@.......
 6e40 08000000 00000000 88050000 00000000  ................
 6e50 09000000 00000000 18000000 00000000  ................
 6e60 1e000000 00000000 08000000 00000000  ................
 6e70 fbffff6f 00000000 01000008 00000000  ...o............
 6e80 feffff6f 00000000 e0070000 00000000  ...o............
 6e90 ffffff6f 00000000 01000000 00000000  ...o............
 6ea0 f0ffff6f 00000000 a6070000 00000000  ...o............
 6eb0 f9ffff6f 00000000 35000000 00000000  ...o....5.......
 6ec0 00000000 00000000 00000000 00000000  ................
 6ed0 00000000 00000000 00000000 00000000  ................
 6ee0 00000000 00000000 00000000 00000000  ................
 6ef0 00000000 00000000 00000000 00000000  ................
 6f00 00000000 00000000 00000000 00000000  ................
Contents of section .got:
 6f10 206d0000 00000000 00000000 00000000   m..............
 6f20 00000000 00000000 30100000 00000000  ........0.......
 6f30 40100000 00000000 50100000 00000000  @.......P.......
 6f40 60100000 00000000 70100000 00000000  `.......p.......
 6f50 80100000 00000000 90100000 00000000  ................
 6f60 a0100000 00000000 b0100000 00000000  ................
 6f70 c0100000 00000000 d0100000 00000000  ................
 6f80 e0100000 00000000 f0100000 00000000  ................
 6f90 00110000 00000000 10110000 00000000  ................
 6fa0 20110000 00000000 30110000 00000000   .......0.......
 6fb0 40110000 00000000 50110000 00000000  @.......P.......
 6fc0 00000000 00000000 00000000 00000000  ................
 6fd0 00000000 00000000 00000000 00000000  ................
 6fe0 00000000 00000000                    ........        
Contents of section .data:
 7000 00000000 00000000 08700000 00000000  .........p......
Contents of section .comment:
 0000 4743433a 20285562 756e7475 2031332e  GCC: (Ubuntu 13.
 0010 332e302d 36756275 6e747532 7e32342e  3.0-6ubuntu2~24.
 0020 30342920 31332e33 2e3000             04) 13.3.0.     

Disassembly of section .init:

0000000000001000 <_init>:
    1000:	f3 0f 1e fa          	endbr64
    1004:	48 83 ec 08          	sub    $0x8,%rsp
    1008:	48 8b 05 c1 5f 00 00 	mov    0x5fc1(%rip),%rax        # 6fd0 <__gmon_start__@Base>
    100f:	48 85 c0             	test   %rax,%rax
    1012:	74 02                	je     1016 <_init+0x16>
    1014:	ff d0                	call   *%rax
    1016:	48 83 c4 08          	add    $0x8,%rsp
    101a:	c3                   	ret

Disassembly of section .plt:

0000000000001020 <.plt>:
    1020:	ff 35 f2 5e 00 00    	push   0x5ef2(%rip)        # 6f18 <_GLOBAL_OFFSET_TABLE_+0x8>
    1026:	ff 25 f4 5e 00 00    	jmp    *0x5ef4(%rip)        # 6f20 <_GLOBAL_OFFSET_TABLE_+0x10>
    102c:	0f 1f 40 00          	nopl   0x0(%rax)
    1030:	f3 0f 1e fa          	endbr64
    1034:	68 00 00 00 00       	push   $0x0
    1039:	e9 e2 ff ff ff       	jmp    1020 <_init+0x20>
    103e:	66 90                	xchg   %ax,%ax
    1040:	f3 0f 1e fa          	endbr64
    1044:	68 01 00 00 00       	push   $0x1
    1049:	e9 d2 ff ff ff       	jmp    1020 <_init+0x20>
    104e:	66 90                	xchg   %ax,%ax
    1050:	f3 0f 1e fa          	endbr64
    1054:	68 02 00 00 00       	push   $0x2
    1059:	e9 c2 ff ff ff       	jmp    1020 <_init+0x20>
    105e:	66 90                	xchg   %ax,%ax
    1060:	f3 0f 1e fa          	endbr64
    1064:	68 03 00 00 00       	push   $0x3
    1069:	e9 b2 ff ff ff       	jmp    1020 <_init+0x20>
    106e:	66 90                	xchg   %ax,%ax
    1070:	f3 0f 1e fa          	endbr64
    1074:	68 04 00 00 00       	push   $0x4
    1079:	e9 a2 ff ff ff       	jmp    1020 <_init+0x20>
    107e:	66 90                	xchg   %ax,%ax
    1080:	f3 0f 1e fa          	endbr64
    1084:	68 05 00 00 00       	push   $0x5
    1089:	e9 92 ff ff ff       	jmp    1020 <_init+0x20>
    108e:	66 90                	xchg   %ax,%ax
    1090:	f3 0f 1e fa          	endbr64
    1094:	68 06 00 00 00       	push   $0x6
    1099:	e9 82 ff ff ff       	jmp    1020 <_init+0x20>
    109e:	66 90                	xchg   %ax,%ax
    10a0:	f3 0f 1e fa          	endbr64
    10a4:	68 07 00 00 00       	push   $0x7
    10a9:	e9 72 ff ff ff       	jmp    1020 <_init+0x20>
    10ae:	66 90                	xchg   %ax,%ax
    10b0:	f3 0f 1e fa          	endbr64
    10b4:	68 08 00 00 00       	push   $0x8
    10b9:	e9 62 ff ff ff       	jmp    1020 <_init+0x20>
    10be:	66 90                	xchg   %ax,%ax
    10c0:	f3 0f 1e fa          	endbr64
    10c4:	68 09 00 00 00       	push   $0x9
    10c9:	e9 52 ff ff ff       	jmp    1020 <_init+0x20>
    10ce:	66 90                	xchg   %ax,%ax
    10d0:	f3 0f 1e fa          	endbr64
    10d4:	68 0a 00 00 00       	push   $0xa
    10d9:	e9 42 ff ff ff       	jmp    1020 <_init+0x20>
    10de:	66 90                	xchg   %ax,%ax
    10e0:	f3 0f 1e fa          	endbr64
    10e4:	68 0b 00 00 00       	push   $0xb
    10e9:	e9 32 ff ff ff       	jmp    1020 <_init+0x20>
    10ee:	66 90                	xchg   %ax,%ax
    10f0:	f3 0f 1e fa          	endbr64
    10f4:	68 0c 00 00 00       	push   $0xc
    10f9:	e9 22 ff ff ff       	jmp    1020 <_init+0x20>
    10fe:	66 90                	xchg   %ax,%ax
    1100:	f3 0f 1e fa          	endbr64
    1104:	68 0d 00 00 00       	push   $0xd
    1109:	e9 12 ff ff ff       	jmp    1020 <_init+0x20>
    110e:	66 90                	xchg   %ax,%ax
    1110:	f3 0f 1e fa          	endbr64
    1114:	68 0e 00 00 00       	push   $0xe
    1119:	e9 02 ff ff ff       	jmp    1020 <_init+0x20>
    111e:	66 90                	xchg   %ax,%ax
    1120:	f3 0f 1e fa          	endbr64
    1124:	68 0f 00 00 00       	push   $0xf
    1129:	e9 f2 fe ff ff       	jmp    1020 <_init+0x20>
    112e:	66 90                	xchg   %ax,%ax
    1130:	f3 0f 1e fa          	endbr64
    1134:	68 10 00 00 00       	push   $0x10
    1139:	e9 e2 fe ff ff       	jmp    1020 <_init+0x20>
    113e:	66 90                	xchg   %ax,%ax
    1140:	f3 0f 1e fa          	endbr64
    1144:	68 11 00 00 00       	push   $0x11
    1149:	e9 d2 fe ff ff       	jmp    1020 <_init+0x20>
    114e:	66 90                	xchg   %ax,%ax
    1150:	f3 0f 1e fa          	endbr64
    1154:	68 12 00 00 00       	push   $0x12
    1159:	e9 c2 fe ff ff       	jmp    1020 <_init+0x20>
    115e:	66 90                	xchg   %ax,%ax

Disassembly of section .plt.got:

0000000000001160 <__cxa_finalize@plt>:
    1160:	f3 0f 1e fa          	endbr64
    1164:	ff 25 76 5e 00 00    	jmp    *0x5e76(%rip)        # 6fe0 <__cxa_finalize@GLIBC_2.2.5>
    116a:	66 0f 1f 44 00 00    	nopw   0x0(%rax,%rax,1)

Disassembly of section .plt.sec:

0000000000001170 <free@plt>:
    1170:	f3 0f 1e fa          	endbr64
    1174:	ff 25 ae 5d 00 00    	jmp    *0x5dae(%rip)        # 6f28 <free@GLIBC_2.2.5>
    117a:	66 0f 1f 44 00 00    	nopw   0x0(%rax,%rax,1)

0000000000001180 <putchar@plt>:
    1180:	f3 0f 1e fa          	endbr64
    1184:	ff 25 a6 5d 00 00    	jmp    *0x5da6(%rip)        # 6f30 <putchar@GLIBC_2.2.5>
    118a:	66 0f 1f 44 00 00    	nopw   0x0(%rax,%rax,1)

0000000000001190 <__read_chk@plt>:
    1190:	f3 0f 1e fa          	endbr64
    1194:	ff 25 9e 5d 00 00    	jmp    *0x5d9e(%rip)        # 6f38 <__read_chk@GLIBC_2.4>
    119a:	66 0f 1f 44 00 00    	nopw   0x0(%rax,%rax,1)

00000000000011a0 <puts@plt>:
    11a0:	f3 0f 1e fa          	endbr64
    11a4:	ff 25 96 5d 00 00    	jmp    *0x5d96(%rip)        # 6f40 <puts@GLIBC_2.2.5>
    11aa:	66 0f 1f 44 00 00    	nopw   0x0(%rax,%rax,1)

00000000000011b0 <__stack_chk_fail@plt>:
    11b0:	f3 0f 1e fa          	endbr64
    11b4:	ff 25 8e 5d 00 00    	jmp    *0x5d8e(%rip)        # 6f48 <__stack_chk_fail@GLIBC_2.4>
    11ba:	66 0f 1f 44 00 00    	nopw   0x0(%rax,%rax,1)

00000000000011c0 <strchr@plt>:
    11c0:	f3 0f 1e fa          	endbr64
    11c4:	ff 25 86 5d 00 00    	jmp    *0x5d86(%rip)        # 6f50 <strchr@GLIBC_2.2.5>
    11ca:	66 0f 1f 44 00 00    	nopw   0x0(%rax,%rax,1)

00000000000011d0 <__assert_fail@plt>:
    11d0:	f3 0f 1e fa          	endbr64
    11d4:	ff 25 7e 5d 00 00    	jmp    *0x5d7e(%rip)        # 6f58 <__assert_fail@GLIBC_2.2.5>
    11da:	66 0f 1f 44 00 00    	nopw   0x0(%rax,%rax,1)

00000000000011e0 <fputs@plt>:
    11e0:	f3 0f 1e fa          	endbr64
    11e4:	ff 25 76 5d 00 00    	jmp    *0x5d76(%rip)        # 6f60 <fputs@GLIBC_2.2.5>
    11ea:	66 0f 1f 44 00 00    	nopw   0x0(%rax,%rax,1)

00000000000011f0 <strtok_r@plt>:
    11f0:	f3 0f 1e fa          	endbr64
    11f4:	ff 25 6e 5d 00 00    	jmp    *0x5d6e(%rip)        # 6f68 <strtok_r@GLIBC_2.2.5>
    11fa:	66 0f 1f 44 00 00    	nopw   0x0(%rax,%rax,1)

0000000000001200 <calloc@plt>:
    1200:	f3 0f 1e fa          	endbr64
    1204:	ff 25 66 5d 00 00    	jmp    *0x5d66(%rip)        # 6f70 <calloc@GLIBC_2.2.5>
    120a:	66 0f 1f 44 00 00    	nopw   0x0(%rax,%rax,1)

0000000000001210 <strcmp@plt>:
    1210:	f3 0f 1e fa          	endbr64
    1214:	ff 25 5e 5d 00 00    	jmp    *0x5d5e(%rip)        # 6f78 <strcmp@GLIBC_2.2.5>
    121a:	66 0f 1f 44 00 00    	nopw   0x0(%rax,%rax,1)

0000000000001220 <malloc@plt>:
    1220:	f3 0f 1e fa          	endbr64
    1224:	ff 25 56 5d 00 00    	jmp    *0x5d56(%rip)        # 6f80 <malloc@GLIBC_2.2.5>
    122a:	66 0f 1f 44 00 00    	nopw   0x0(%rax,%rax,1)

0000000000001230 <__isoc99_sscanf@plt>:
    1230:	f3 0f 1e fa          	endbr64
    1234:	ff 25 4e 5d 00 00    	jmp    *0x5d4e(%rip)        # 6f88 <__isoc99_sscanf@GLIBC_2.7>
    123a:	66 0f 1f 44 00 00    	nopw   0x0(%rax,%rax,1)

0000000000001240 <__printf_chk@plt>:
    1240:	f3 0f 1e fa          	endbr64
    1244:	ff 25 46 5d 00 00    	jmp    *0x5d46(%rip)        # 6f90 <__printf_chk@GLIBC_2.3.4>
    124a:	66 0f 1f 44 00 00    	nopw   0x0(%rax,%rax,1)

0000000000001250 <exit@plt>:
    1250:	f3 0f 1e fa          	endbr64
    1254:	ff 25 3e 5d 00 00    	jmp    *0x5d3e(%rip)        # 6f98 <exit@GLIBC_2.2.5>
    125a:	66 0f 1f 44 00 00    	nopw   0x0(%rax,%rax,1)

0000000000001260 <fwrite@plt>:
    1260:	f3 0f 1e fa          	endbr64
    1264:	ff 25 36 5d 00 00    	jmp    *0x5d36(%rip)        # 6fa0 <fwrite@GLIBC_2.2.5>
    126a:	66 0f 1f 44 00 00    	nopw   0x0(%rax,%rax,1)

0000000000001270 <__fprintf_chk@plt>:
    1270:	f3 0f 1e fa          	endbr64
    1274:	ff 25 2e 5d 00 00    	jmp    *0x5d2e(%rip)        # 6fa8 <__fprintf_chk@GLIBC_2.3.4>
    127a:	66 0f 1f 44 00 00    	nopw   0x0(%rax,%rax,1)

0000000000001280 <strdup@plt>:
    1280:	f3 0f 1e fa          	endbr64
    1284:	ff 25 26 5d 00 00    	jmp    *0x5d26(%rip)        # 6fb0 <strdup@GLIBC_2.2.5>
    128a:	66 0f 1f 44 00 00    	nopw   0x0(%rax,%rax,1)

0000000000001290 <__sprintf_chk@plt>:
    1290:	f3 0f 1e fa          	endbr64
    1294:	ff 25 1e 5d 00 00    	jmp    *0x5d1e(%rip)        # 6fb8 <__sprintf_chk@GLIBC_2.3.4>
    129a:	66 0f 1f 44 00 00    	nopw   0x0(%rax,%rax,1)

Disassembly of section .text:

00000000000012a0 <main>:
    12a0:	f3 0f 1e fa          	endbr64
    12a4:	41 57                	push   %r15
    12a6:	41 56                	push   %r14
    12a8:	41 55                	push   %r13
    12aa:	41 54                	push   %r12
    12ac:	55                   	push   %rbp
    12ad:	53                   	push   %rbx
    12ae:	4c 8d 9c 24 00 c0 ff 	lea    -0x4000(%rsp),%r11
    12b5:	ff 
    12b6:	48 81 ec 00 10 00 00 	sub    $0x1000,%rsp
    12bd:	48 83 0c 24 00       	orq    $0x0,(%rsp)
    12c2:	4c 39 dc             	cmp    %r11,%rsp
    12c5:	75 ef                	jne    12b6 <main+0x16>
    12c7:	48 81 ec 88 00 00 00 	sub    $0x88,%rsp
    12ce:	48 8b 0d 4b 5d 00 00 	mov    0x5d4b(%rip),%rcx        # 7020 <stderr@GLIBC_2.2.5>
    12d5:	ba 11 00 00 00       	mov    $0x11,%edx
    12da:	64 48 8b 04 25 28 00 	mov    %fs:0x28,%rax
    12e1:	00 00 
    12e3:	48 89 84 24 78 40 00 	mov    %rax,0x4078(%rsp)
    12ea:	00 
    12eb:	31 c0                	xor    %eax,%eax
    12ed:	89 fb                	mov    %edi,%ebx
    12ef:	49 89 f4             	mov    %rsi,%r12
    12f2:	48 8d 3d c2 36 00 00 	lea    0x36c2(%rip),%rdi        # 49bb <_IO_stdin_used+0x9bb>
    12f9:	be 01 00 00 00       	mov    $0x1,%esi
    12fe:	e8 5d ff ff ff       	call   1260 <fwrite@plt>
    1303:	66 0f ef c0          	pxor   %xmm0,%xmm0
    1307:	48 c7 44 24 60 01 00 	movq   $0x1,0x60(%rsp)
    130e:	00 00 
    1310:	0f 29 44 24 20       	movaps %xmm0,0x20(%rsp)
    1315:	0f 29 44 24 30       	movaps %xmm0,0x30(%rsp)
    131a:	66 0f 6f 05 5e 3a 00 	movdqa 0x3a5e(%rip),%xmm0        # 4d80 <__PRETTY_FUNCTION__.1+0xe>
    1321:	00 
    1322:	0f 29 44 24 40       	movaps %xmm0,0x40(%rsp)
    1327:	0f 29 44 24 50       	movaps %xmm0,0x50(%rsp)
    132c:	83 fb 01             	cmp    $0x1,%ebx
    132f:	0f 8e b3 00 00 00    	jle    13e8 <main+0x148>
    1335:	8d 43 fe             	lea    -0x2(%rbx),%eax
    1338:	49 8d 6c 24 08       	lea    0x8(%r12),%rbp
    133d:	4d 8d 7c c4 10       	lea    0x10(%r12,%rax,8),%r15
    1342:	48 8d 44 24 18       	lea    0x18(%rsp),%rax
    1347:	48 89 44 24 08       	mov    %rax,0x8(%rsp)
    134c:	48 8d 44 24 10       	lea    0x10(%rsp),%rax
    1351:	4c 8d 35 75 36 00 00 	lea    0x3675(%rip),%r14        # 49cd <_IO_stdin_used+0x9cd>
    1358:	48 89 04 24          	mov    %rax,(%rsp)
    135c:	4c 8d 2d 7b 36 00 00 	lea    0x367b(%rip),%r13        # 49de <_IO_stdin_used+0x9de>
    1363:	4c 8d 25 84 36 00 00 	lea    0x3684(%rip),%r12        # 49ee <_IO_stdin_used+0x9ee>
    136a:	66 0f 1f 44 00 00    	nopw   0x0(%rax,%rax,1)
    1370:	48 8b 5d 00          	mov    0x0(%rbp),%rbx
    1374:	4c 89 f6             	mov    %r14,%rsi
    1377:	48 89 df             	mov    %rbx,%rdi
    137a:	e8 91 fe ff ff       	call   1210 <strcmp@plt>
    137f:	85 c0                	test   %eax,%eax
    1381:	75 09                	jne    138c <main+0xec>
    1383:	48 c7 44 24 40 00 00 	movq   $0x0,0x40(%rsp)
    138a:	00 00 
    138c:	4c 89 ee             	mov    %r13,%rsi
    138f:	48 89 df             	mov    %rbx,%rdi
    1392:	e8 79 fe ff ff       	call   1210 <strcmp@plt>
    1397:	85 c0                	test   %eax,%eax
    1399:	75 09                	jne    13a4 <main+0x104>
    139b:	48 c7 44 24 48 00 00 	movq   $0x0,0x48(%rsp)
    13a2:	00 00 
    13a4:	4c 89 e6             	mov    %r12,%rsi
    13a7:	48 89 df             	mov    %rbx,%rdi
    13aa:	e8 61 fe ff ff       	call   1210 <strcmp@plt>
    13af:	85 c0                	test   %eax,%eax
    13b1:	75 09                	jne    13bc <main+0x11c>
    13b3:	48 c7 44 24 50 00 00 	movq   $0x0,0x50(%rsp)
    13ba:	00 00 
    13bc:	48 8b 4c 24 08       	mov    0x8(%rsp),%rcx
    13c1:	48 8b 14 24          	mov    (%rsp),%rdx
    13c5:	31 c0                	xor    %eax,%eax
    13c7:	48 89 df             	mov    %rbx,%rdi
    13ca:	48 8d 35 2e 36 00 00 	lea    0x362e(%rip),%rsi        # 49ff <_IO_stdin_used+0x9ff>
    13d1:	e8 5a fe ff ff       	call   1230 <__isoc99_sscanf@plt>
    13d6:	83 f8 02             	cmp    $0x2,%eax
    13d9:	0f 84 01 01 00 00    	je     14e0 <main+0x240>
    13df:	48 83 c5 08          	add    $0x8,%rbp
    13e3:	49 39 ef             	cmp    %rbp,%r15
    13e6:	75 88                	jne    1370 <main+0xd0>
    13e8:	45 31 e4             	xor    %r12d,%r12d
    13eb:	48 8d 5c 24 70       	lea    0x70(%rsp),%rbx
    13f0:	bd 00 40 00 00       	mov    $0x4000,%ebp
    13f5:	eb 12                	jmp    1409 <main+0x169>
    13f7:	66 0f 1f 84 00 00 00 	nopw   0x0(%rax,%rax,1)
    13fe:	00 00 
    1400:	0f 88 f5 01 00 00    	js     15fb <main+0x35b>
    1406:	41 01 c4             	add    %eax,%r12d
    1409:	49 63 f4             	movslq %r12d,%rsi
    140c:	b9 00 40 00 00       	mov    $0x4000,%ecx
    1411:	89 ea                	mov    %ebp,%edx
    1413:	48 39 ce             	cmp    %rcx,%rsi
    1416:	48 0f 43 ce          	cmovae %rsi,%rcx
    141a:	44 29 e2             	sub    %r12d,%edx
    141d:	31 ff                	xor    %edi,%edi
    141f:	48 63 d2             	movslq %edx,%rdx
    1422:	48 29 f1             	sub    %rsi,%rcx
    1425:	48 01 de             	add    %rbx,%rsi
    1428:	e8 63 fd ff ff       	call   1190 <__read_chk@plt>
    142d:	85 c0                	test   %eax,%eax
    142f:	75 cf                	jne    1400 <main+0x160>
    1431:	4c 8d 6c 24 20       	lea    0x20(%rsp),%r13
    1436:	48 89 df             	mov    %rbx,%rdi
    1439:	4c 89 ee             	mov    %r13,%rsi
    143c:	e8 bf 07 00 00       	call   1c00 <instructions_parse>
    1441:	48 89 c5             	mov    %rax,%rbp
    1444:	48 85 c0             	test   %rax,%rax
    1447:	0f 84 c2 01 00 00    	je     160f <main+0x36f>
    144d:	48 89 c7             	mov    %rax,%rdi
    1450:	e8 7b 1d 00 00       	call   31d0 <stringify_program>
    1455:	be 0a 00 00 00       	mov    $0xa,%esi
    145a:	48 89 df             	mov    %rbx,%rdi
    145d:	49 89 c4             	mov    %rax,%r12
    1460:	e8 5b fd ff ff       	call   11c0 <strchr@plt>
    1465:	48 85 c0             	test   %rax,%rax
    1468:	0f 84 ba 01 00 00    	je     1628 <main+0x388>
    146e:	48 8d 58 01          	lea    0x1(%rax),%rbx
    1472:	4c 89 e6             	mov    %r12,%rsi
    1475:	48 89 df             	mov    %rbx,%rdi
    1478:	e8 93 fd ff ff       	call   1210 <strcmp@plt>
    147d:	85 c0                	test   %eax,%eax
    147f:	0f 84 7d 00 00 00    	je     1502 <main+0x262>
    1485:	48 8d 74 24 10       	lea    0x10(%rsp),%rsi
    148a:	48 89 df             	mov    %rbx,%rdi
    148d:	e8 7e 19 00 00       	call   2e10 <lines>
    1492:	48 89 ef             	mov    %rbp,%rdi
    1495:	49 89 c4             	mov    %rax,%r12
    1498:	e8 33 1d 00 00       	call   31d0 <stringify_program>
    149d:	48 8d 74 24 18       	lea    0x18(%rsp),%rsi
    14a2:	48 89 c7             	mov    %rax,%rdi
    14a5:	e8 66 19 00 00       	call   2e10 <lines>
    14aa:	49 89 c5             	mov    %rax,%r13
    14ad:	8b 44 24 18          	mov    0x18(%rsp),%eax
    14b1:	39 44 24 10          	cmp    %eax,0x10(%rsp)
    14b5:	0f 84 b7 00 00 00    	je     1572 <main+0x2d2>
    14bb:	48 8d 0d b0 38 00 00 	lea    0x38b0(%rip),%rcx        # 4d72 <__PRETTY_FUNCTION__.1>
    14c2:	ba 50 00 00 00       	mov    $0x50,%edx
    14c7:	48 8d 35 5e 35 00 00 	lea    0x355e(%rip),%rsi        # 4a2c <_IO_stdin_used+0xa2c>
    14ce:	48 8d 3d 5e 35 00 00 	lea    0x355e(%rip),%rdi        # 4a33 <_IO_stdin_used+0xa33>
    14d5:	e8 f6 fc ff ff       	call   11d0 <__assert_fail@plt>
    14da:	66 0f 1f 44 00 00    	nopw   0x0(%rax,%rax,1)
    14e0:	f3 0f 7e 44 24 18    	movq   0x18(%rsp),%xmm0
    14e6:	48 83 c5 08          	add    $0x8,%rbp
    14ea:	0f 16 44 24 10       	movhps 0x10(%rsp),%xmm0
    14ef:	0f 11 44 24 58       	movups %xmm0,0x58(%rsp)
    14f4:	4c 39 fd             	cmp    %r15,%rbp
    14f7:	0f 85 73 fe ff ff    	jne    1370 <main+0xd0>
    14fd:	e9 e6 fe ff ff       	jmp    13e8 <main+0x148>
    1502:	48 8b 74 24 58       	mov    0x58(%rsp),%rsi
    1507:	48 8b 7c 24 60       	mov    0x60(%rsp),%rdi
    150c:	e8 6f 02 00 00       	call   1780 <cache_allocate>
    1511:	48 8b 7c 24 38       	mov    0x38(%rsp),%rdi
    1516:	49 89 c4             	mov    %rax,%r12
    1519:	e8 f2 0b 00 00       	call   2110 <memory_alloc>
    151e:	48 8b 7c 24 30       	mov    0x30(%rsp),%rdi
    1523:	48 89 c3             	mov    %rax,%rbx
    1526:	e8 b5 13 00 00       	call   28e0 <registers_alloc>
    152b:	4c 89 ef             	mov    %r13,%rdi
    152e:	4d 89 e0             	mov    %r12,%r8
    1531:	48 89 d9             	mov    %rbx,%rcx
    1534:	48 89 c2             	mov    %rax,%rdx
    1537:	48 89 ee             	mov    %rbp,%rsi
    153a:	e8 b1 12 00 00       	call   27f0 <processor_alloc>
    153f:	48 89 c7             	mov    %rax,%rdi
    1542:	e8 79 11 00 00       	call   26c0 <processor_emulate>
    1547:	48 8b 84 24 78 40 00 	mov    0x4078(%rsp),%rax
    154e:	00 
    154f:	64 48 2b 04 25 28 00 	sub    %fs:0x28,%rax
    1556:	00 00 
    1558:	0f 85 c5 00 00 00    	jne    1623 <main+0x383>
    155e:	48 81 c4 88 40 00 00 	add    $0x4088,%rsp
    1565:	31 c0                	xor    %eax,%eax
    1567:	5b                   	pop    %rbx
    1568:	5d                   	pop    %rbp
    1569:	41 5c                	pop    %r12
    156b:	41 5d                	pop    %r13
    156d:	41 5e                	pop    %r14
    156f:	41 5f                	pop    %r15
    1571:	c3                   	ret
    1572:	48 8b 0d a7 5a 00 00 	mov    0x5aa7(%rip),%rcx        # 7020 <stderr@GLIBC_2.2.5>
    1579:	ba 27 00 00 00       	mov    $0x27,%edx
    157e:	be 01 00 00 00       	mov    $0x1,%esi
    1583:	31 db                	xor    %ebx,%ebx
    1585:	48 8d 3d bc 2d 00 00 	lea    0x2dbc(%rip),%rdi        # 4348 <_IO_stdin_used+0x348>
    158c:	e8 cf fc ff ff       	call   1260 <fwrite@plt>
    1591:	44 8b 74 24 18       	mov    0x18(%rsp),%r14d
    1596:	45 85 f6             	test   %r14d,%r14d
    1599:	7e 26                	jle    15c1 <main+0x321>
    159b:	0f 1f 44 00 00       	nopl   0x0(%rax,%rax,1)
    15a0:	4d 8b 7c dd 00       	mov    0x0(%r13,%rbx,8),%r15
    15a5:	49 8b 2c dc          	mov    (%r12,%rbx,8),%rbp
    15a9:	4c 89 fe             	mov    %r15,%rsi
    15ac:	48 89 ef             	mov    %rbp,%rdi
    15af:	e8 5c fc ff ff       	call   1210 <strcmp@plt>
    15b4:	85 c0                	test   %eax,%eax
    15b6:	75 11                	jne    15c9 <main+0x329>
    15b8:	48 83 c3 01          	add    $0x1,%rbx
    15bc:	41 39 de             	cmp    %ebx,%r14d
    15bf:	7f df                	jg     15a0 <main+0x300>
    15c1:	83 cf ff             	or     $0xffffffff,%edi
    15c4:	e8 87 fc ff ff       	call   1250 <exit@plt>
    15c9:	48 8b 3d 50 5a 00 00 	mov    0x5a50(%rip),%rdi        # 7020 <stderr@GLIBC_2.2.5>
    15d0:	89 d9                	mov    %ebx,%ecx
    15d2:	4d 89 f9             	mov    %r15,%r9
    15d5:	49 89 e8             	mov    %rbp,%r8
    15d8:	48 8d 15 91 2d 00 00 	lea    0x2d91(%rip),%rdx        # 4370 <_IO_stdin_used+0x370>
    15df:	be 02 00 00 00       	mov    $0x2,%esi
    15e4:	31 c0                	xor    %eax,%eax
    15e6:	48 83 c3 01          	add    $0x1,%rbx
    15ea:	e8 81 fc ff ff       	call   1270 <__fprintf_chk@plt>
    15ef:	44 8b 74 24 18       	mov    0x18(%rsp),%r14d
    15f4:	41 39 de             	cmp    %ebx,%r14d
    15f7:	7f a7                	jg     15a0 <main+0x300>
    15f9:	eb c6                	jmp    15c1 <main+0x321>
    15fb:	48 8d 3d 26 2d 00 00 	lea    0x2d26(%rip),%rdi        # 4328 <_IO_stdin_used+0x328>
    1602:	e8 99 fb ff ff       	call   11a0 <puts@plt>
    1607:	83 cf ff             	or     $0xffffffff,%edi
    160a:	e8 41 fc ff ff       	call   1250 <exit@plt>
    160f:	48 8d 3d 00 34 00 00 	lea    0x3400(%rip),%rdi        # 4a16 <_IO_stdin_used+0xa16>
    1616:	e8 85 fb ff ff       	call   11a0 <puts@plt>
    161b:	83 cf ff             	or     $0xffffffff,%edi
    161e:	e8 2d fc ff ff       	call   1250 <exit@plt>
    1623:	e8 88 fb ff ff       	call   11b0 <__stack_chk_fail@plt>
    1628:	48 8d 0d 31 37 00 00 	lea    0x3731(%rip),%rcx        # 4d60 <__PRETTY_FUNCTION__.0>
    162f:	ba 18 00 00 00       	mov    $0x18,%edx
    1634:	48 8d 35 f1 33 00 00 	lea    0x33f1(%rip),%rsi        # 4a2c <_IO_stdin_used+0xa2c>
    163b:	48 8d 3d c2 32 00 00 	lea    0x32c2(%rip),%rdi        # 4904 <_IO_stdin_used+0x904>
    1642:	e8 89 fb ff ff       	call   11d0 <__assert_fail@plt>
    1647:	66 0f 1f 84 00 00 00 	nopw   0x0(%rax,%rax,1)
    164e:	00 00 

0000000000001650 <_start>:
    1650:	f3 0f 1e fa          	endbr64
    1654:	31 ed                	xor    %ebp,%ebp
    1656:	49 89 d1             	mov    %rdx,%r9
    1659:	5e                   	pop    %rsi
    165a:	48 89 e2             	mov    %rsp,%rdx
    165d:	48 83 e4 f0          	and    $0xfffffffffffffff0,%rsp
    1661:	50                   	push   %rax
    1662:	54                   	push   %rsp
    1663:	45 31 c0             	xor    %r8d,%r8d
    1666:	31 c9                	xor    %ecx,%ecx
    1668:	48 8d 3d 31 fc ff ff 	lea    -0x3cf(%rip),%rdi        # 12a0 <main>
    166f:	ff 15 4b 59 00 00    	call   *0x594b(%rip)        # 6fc0 <__libc_start_main@GLIBC_2.34>
    1675:	f4                   	hlt
    1676:	66 2e 0f 1f 84 00 00 	cs nopw 0x0(%rax,%rax,1)
    167d:	00 00 00 

0000000000001680 <deregister_tm_clones>:
    1680:	48 8d 3d 89 59 00 00 	lea    0x5989(%rip),%rdi        # 7010 <__TMC_END__>
    1687:	48 8d 05 82 59 00 00 	lea    0x5982(%rip),%rax        # 7010 <__TMC_END__>
    168e:	48 39 f8             	cmp    %rdi,%rax
    1691:	74 15                	je     16a8 <deregister_tm_clones+0x28>
    1693:	48 8b 05 2e 59 00 00 	mov    0x592e(%rip),%rax        # 6fc8 <_ITM_deregisterTMCloneTable@Base>
    169a:	48 85 c0             	test   %rax,%rax
    169d:	74 09                	je     16a8 <deregister_tm_clones+0x28>
    169f:	ff e0                	jmp    *%rax
    16a1:	0f 1f 80 00 00 00 00 	nopl   0x0(%rax)
    16a8:	c3                   	ret
    16a9:	0f 1f 80 00 00 00 00 	nopl   0x0(%rax)

00000000000016b0 <register_tm_clones>:
    16b0:	48 8d 3d 59 59 00 00 	lea    0x5959(%rip),%rdi        # 7010 <__TMC_END__>
    16b7:	48 8d 35 52 59 00 00 	lea    0x5952(%rip),%rsi        # 7010 <__TMC_END__>
    16be:	48 29 fe             	sub    %rdi,%rsi
    16c1:	48 89 f0             	mov    %rsi,%rax
    16c4:	48 c1 ee 3f          	shr    $0x3f,%rsi
    16c8:	48 c1 f8 03          	sar    $0x3,%rax
    16cc:	48 01 c6             	add    %rax,%rsi
    16cf:	48 d1 fe             	sar    $1,%rsi
    16d2:	74 14                	je     16e8 <register_tm_clones+0x38>
    16d4:	48 8b 05 fd 58 00 00 	mov    0x58fd(%rip),%rax        # 6fd8 <_ITM_registerTMCloneTable@Base>
    16db:	48 85 c0             	test   %rax,%rax
    16de:	74 08                	je     16e8 <register_tm_clones+0x38>
    16e0:	ff e0                	jmp    *%rax
    16e2:	66 0f 1f 44 00 00    	nopw   0x0(%rax,%rax,1)
    16e8:	c3                   	ret
    16e9:	0f 1f 80 00 00 00 00 	nopl   0x0(%rax)

00000000000016f0 <__do_global_dtors_aux>:
    16f0:	f3 0f 1e fa          	endbr64
    16f4:	80 3d 2d 59 00 00 00 	cmpb   $0x0,0x592d(%rip)        # 7028 <completed.0>
    16fb:	75 2b                	jne    1728 <__do_global_dtors_aux+0x38>
    16fd:	55                   	push   %rbp
    16fe:	48 83 3d da 58 00 00 	cmpq   $0x0,0x58da(%rip)        # 6fe0 <__cxa_finalize@GLIBC_2.2.5>
    1705:	00 
    1706:	48 89 e5             	mov    %rsp,%rbp
    1709:	74 0c                	je     1717 <__do_global_dtors_aux+0x27>
    170b:	48 8b 3d f6 58 00 00 	mov    0x58f6(%rip),%rdi        # 7008 <__dso_handle>
    1712:	e8 49 fa ff ff       	call   1160 <__cxa_finalize@plt>
    1717:	e8 64 ff ff ff       	call   1680 <deregister_tm_clones>
    171c:	c6 05 05 59 00 00 01 	movb   $0x1,0x5905(%rip)        # 7028 <completed.0>
    1723:	5d                   	pop    %rbp
    1724:	c3                   	ret
    1725:	0f 1f 00             	nopl   (%rax)
    1728:	c3                   	ret
    1729:	0f 1f 80 00 00 00 00 	nopl   0x0(%rax)

0000000000001730 <frame_dummy>:
    1730:	f3 0f 1e fa          	endbr64
    1734:	e9 77 ff ff ff       	jmp    16b0 <register_tm_clones>
    1739:	0f 1f 80 00 00 00 00 	nopl   0x0(%rax)

0000000000001740 <cache_access>:
    1740:	f3 0f 1e fa          	endbr64
    1744:	48 c1 ee 06          	shr    $0x6,%rsi
    1748:	31 d2                	xor    %edx,%edx
    174a:	48 83 47 18 01       	addq   $0x1,0x18(%rdi)
    174f:	48 89 f0             	mov    %rsi,%rax
    1752:	48 f7 77 08          	divq   0x8(%rdi)
    1756:	48 8b 07             	mov    (%rdi),%rax
    1759:	48 63 d2             	movslq %edx,%rdx
    175c:	48 8d 04 d0          	lea    (%rax,%rdx,8),%rax
    1760:	48 39 30             	cmp    %rsi,(%rax)
    1763:	74 08                	je     176d <cache_access+0x2d>
    1765:	48 83 47 20 01       	addq   $0x1,0x20(%rdi)
    176a:	48 89 30             	mov    %rsi,(%rax)
    176d:	c3                   	ret
    176e:	66 90                	xchg   %ax,%ax

0000000000001770 <cache_statistics>:
    1770:	f3 0f 1e fa          	endbr64
    1774:	48 8b 57 20          	mov    0x20(%rdi),%rdx
    1778:	48 8b 47 18          	mov    0x18(%rdi),%rax
    177c:	c3                   	ret
    177d:	0f 1f 00             	nopl   (%rax)

0000000000001780 <cache_allocate>:
    1780:	f3 0f 1e fa          	endbr64
    1784:	48 89 f8             	mov    %rdi,%rax
    1787:	31 d2                	xor    %edx,%edx
    1789:	41 54                	push   %r12
    178b:	49 89 fc             	mov    %rdi,%r12
    178e:	48 f7 f6             	div    %rsi
    1791:	55                   	push   %rbp
    1792:	53                   	push   %rbx
    1793:	49 29 d4             	sub    %rdx,%r12
    1796:	49 39 fc             	cmp    %rdi,%r12
    1799:	75 4a                	jne    17e5 <cache_allocate+0x65>
    179b:	bf 28 00 00 00       	mov    $0x28,%edi
    17a0:	48 89 f5             	mov    %rsi,%rbp
    17a3:	e8 78 fa ff ff       	call   1220 <malloc@plt>
    17a8:	48 89 c3             	mov    %rax,%rbx
    17ab:	48 85 c0             	test   %rax,%rax
    17ae:	74 79                	je     1829 <cache_allocate+0xa9>
    17b0:	be 08 00 00 00       	mov    $0x8,%esi
    17b5:	4c 89 e7             	mov    %r12,%rdi
    17b8:	e8 43 fa ff ff       	call   1200 <calloc@plt>
    17bd:	66 0f ef c0          	pxor   %xmm0,%xmm0
    17c1:	4c 89 63 08          	mov    %r12,0x8(%rbx)
    17c5:	0f 11 43 10          	movups %xmm0,0x10(%rbx)
    17c9:	48 c7 43 20 00 00 00 	movq   $0x0,0x20(%rbx)
    17d0:	00 
    17d1:	48 89 03             	mov    %rax,(%rbx)
    17d4:	48 89 6b 10          	mov    %rbp,0x10(%rbx)
    17d8:	48 85 c0             	test   %rax,%rax
    17db:	74 2d                	je     180a <cache_allocate+0x8a>
    17dd:	48 89 d8             	mov    %rbx,%rax
    17e0:	5b                   	pop    %rbx
    17e1:	5d                   	pop    %rbp
    17e2:	41 5c                	pop    %r12
    17e4:	c3                   	ret
    17e5:	48 8b 0d 34 58 00 00 	mov    0x5834(%rip),%rcx        # 7020 <stderr@GLIBC_2.2.5>
    17ec:	ba 78 00 00 00       	mov    $0x78,%edx
    17f1:	be 01 00 00 00       	mov    $0x1,%esi
    17f6:	48 8d 3d 0b 28 00 00 	lea    0x280b(%rip),%rdi        # 4008 <_IO_stdin_used+0x8>
    17fd:	e8 5e fa ff ff       	call   1260 <fwrite@plt>
    1802:	83 cf ff             	or     $0xffffffff,%edi
    1805:	e8 46 fa ff ff       	call   1250 <exit@plt>
    180a:	48 8d 0d cf 34 00 00 	lea    0x34cf(%rip),%rcx        # 4ce0 <__PRETTY_FUNCTION__.0>
    1811:	ba 48 00 00 00       	mov    $0x48,%edx
    1816:	48 8d 35 d2 30 00 00 	lea    0x30d2(%rip),%rsi        # 48ef <_IO_stdin_used+0x8ef>
    181d:	48 8d 3d d3 30 00 00 	lea    0x30d3(%rip),%rdi        # 48f7 <_IO_stdin_used+0x8f7>
    1824:	e8 a7 f9 ff ff       	call   11d0 <__assert_fail@plt>
    1829:	48 8d 0d b0 34 00 00 	lea    0x34b0(%rip),%rcx        # 4ce0 <__PRETTY_FUNCTION__.0>
    1830:	ba 42 00 00 00       	mov    $0x42,%edx
    1835:	48 8d 35 b3 30 00 00 	lea    0x30b3(%rip),%rsi        # 48ef <_IO_stdin_used+0x8ef>
    183c:	48 8d 3d b2 30 00 00 	lea    0x30b2(%rip),%rdi        # 48f5 <_IO_stdin_used+0x8f5>
    1843:	e8 88 f9 ff ff       	call   11d0 <__assert_fail@plt>
    1848:	0f 1f 84 00 00 00 00 	nopl   0x0(%rax,%rax,1)
    184f:	00 

0000000000001850 <cache_free>:
    1850:	f3 0f 1e fa          	endbr64
    1854:	53                   	push   %rbx
    1855:	48 89 fb             	mov    %rdi,%rbx
    1858:	48 8b 3f             	mov    (%rdi),%rdi
    185b:	e8 10 f9 ff ff       	call   1170 <free@plt>
    1860:	48 89 df             	mov    %rbx,%rdi
    1863:	5b                   	pop    %rbx
    1864:	e9 07 f9 ff ff       	jmp    1170 <free@plt>
    1869:	0f 1f 80 00 00 00 00 	nopl   0x0(%rax)

0000000000001870 <err>:
    1870:	50                   	push   %rax
    1871:	58                   	pop    %rax
    1872:	48 8d 15 ac 30 00 00 	lea    0x30ac(%rip),%rdx        # 4925 <_IO_stdin_used+0x925>
    1879:	be 02 00 00 00       	mov    $0x2,%esi
    187e:	31 c0                	xor    %eax,%eax
    1880:	48 83 ec 08          	sub    $0x8,%rsp
    1884:	48 89 f9             	mov    %rdi,%rcx
    1887:	48 8b 3d 92 57 00 00 	mov    0x5792(%rip),%rdi        # 7020 <stderr@GLIBC_2.2.5>
    188e:	e8 dd f9 ff ff       	call   1270 <__fprintf_chk@plt>
    1893:	bf ff ff ff ff       	mov    $0xffffffff,%edi
    1898:	e8 b3 f9 ff ff       	call   1250 <exit@plt>
    189d:	0f 1f 00             	nopl   (%rax)

00000000000018a0 <processor_emulate_cntlflowops>:
    18a0:	f3 0f 1e fa          	endbr64
    18a4:	41 56                	push   %r14
    18a6:	41 55                	push   %r13
    18a8:	41 54                	push   %r12
    18aa:	55                   	push   %rbp
    18ab:	53                   	push   %rbx
    18ac:	48 8b 6f 50          	mov    0x50(%rdi),%rbp
    18b0:	48 85 ed             	test   %rbp,%rbp
    18b3:	0f 84 32 03 00 00    	je     1beb <processor_emulate_cntlflowops+0x34b>
    18b9:	48 89 f3             	mov    %rsi,%rbx
    18bc:	48 85 f6             	test   %rsi,%rsi
    18bf:	0f 84 1a 03 00 00    	je     1bdf <processor_emulate_cntlflowops+0x33f>
    18c5:	48 85 d2             	test   %rdx,%rdx
    18c8:	0f 84 05 03 00 00    	je     1bd3 <processor_emulate_cntlflowops+0x333>
    18ce:	48 8b 47 48          	mov    0x48(%rdi),%rax
    18d2:	48 85 c0             	test   %rax,%rax
    18d5:	0f 84 ec 02 00 00    	je     1bc7 <processor_emulate_cntlflowops+0x327>
    18db:	48 83 78 08 00       	cmpq   $0x0,0x8(%rax)
    18e0:	0f 84 d5 02 00 00    	je     1bbb <processor_emulate_cntlflowops+0x31b>
    18e6:	48 89 ef             	mov    %rbp,%rdi
    18e9:	e8 42 10 00 00       	call   2930 <registers_getpc>
    18ee:	8b 53 10             	mov    0x10(%rbx),%edx
    18f1:	41 89 c4             	mov    %eax,%r12d
    18f4:	4d 8d 6c 24 04       	lea    0x4(%r12),%r13
    18f9:	83 fa 01             	cmp    $0x1,%edx
    18fc:	0f 84 be 00 00 00    	je     19c0 <processor_emulate_cntlflowops+0x120>
    1902:	85 d2                	test   %edx,%edx
    1904:	75 6a                	jne    1970 <processor_emulate_cntlflowops+0xd0>
    1906:	8b 03                	mov    (%rbx),%eax
    1908:	83 f8 1a             	cmp    $0x1a,%eax
    190b:	0f 84 07 01 00 00    	je     1a18 <processor_emulate_cntlflowops+0x178>
    1911:	83 f8 1b             	cmp    $0x1b,%eax
    1914:	0f 85 96 00 00 00    	jne    19b0 <processor_emulate_cntlflowops+0x110>
    191a:	8b 73 1c             	mov    0x1c(%rbx),%esi
    191d:	48 89 ef             	mov    %rbp,%rdi
    1920:	e8 eb 0f 00 00       	call   2910 <registers_getreg>
    1925:	8b 73 20             	mov    0x20(%rbx),%esi
    1928:	48 89 ef             	mov    %rbp,%rdi
    192b:	49 89 c4             	mov    %rax,%r12
    192e:	e8 dd 0f 00 00       	call   2910 <registers_getreg>
    1933:	49 39 c4             	cmp    %rax,%r12
    1936:	0f 92 c2             	setb   %dl
    1939:	8b 73 18             	mov    0x18(%rbx),%esi
    193c:	48 89 ef             	mov    %rbp,%rdi
    193f:	0f b6 d2             	movzbl %dl,%edx
    1942:	e8 d9 0f 00 00       	call   2920 <registers_setreg>
    1947:	4c 89 ee             	mov    %r13,%rsi
    194a:	48 89 ef             	mov    %rbp,%rdi
    194d:	e8 ee 0f 00 00       	call   2940 <registers_setpc>
    1952:	31 d2                	xor    %edx,%edx
    1954:	31 f6                	xor    %esi,%esi
    1956:	48 89 ef             	mov    %rbp,%rdi
    1959:	e8 c2 0f 00 00       	call   2920 <registers_setreg>
    195e:	31 c0                	xor    %eax,%eax
    1960:	5b                   	pop    %rbx
    1961:	5d                   	pop    %rbp
    1962:	41 5c                	pop    %r12
    1964:	41 5d                	pop    %r13
    1966:	41 5e                	pop    %r14
    1968:	c3                   	ret
    1969:	0f 1f 80 00 00 00 00 	nopl   0x0(%rax)
    1970:	83 fa 02             	cmp    $0x2,%edx
    1973:	74 6b                	je     19e0 <processor_emulate_cntlflowops+0x140>
    1975:	b8 01 00 00 00       	mov    $0x1,%eax
    197a:	83 fa 03             	cmp    $0x3,%edx
    197d:	75 e1                	jne    1960 <processor_emulate_cntlflowops+0xc0>
    197f:	83 3b 31             	cmpl   $0x31,(%rbx)
    1982:	75 dc                	jne    1960 <processor_emulate_cntlflowops+0xc0>
    1984:	8b 73 18             	mov    0x18(%rbx),%esi
    1987:	4c 89 ea             	mov    %r13,%rdx
    198a:	48 89 ef             	mov    %rbp,%rdi
    198d:	e8 8e 0f 00 00       	call   2920 <registers_setreg>
    1992:	8b 73 1c             	mov    0x1c(%rbx),%esi
    1995:	48 89 ef             	mov    %rbp,%rdi
    1998:	e8 73 0f 00 00       	call   2910 <registers_getreg>
    199d:	4c 8b 6b 20          	mov    0x20(%rbx),%r13
    19a1:	48 83 e0 fe          	and    $0xfffffffffffffffe,%rax
    19a5:	49 01 c5             	add    %rax,%r13
    19a8:	eb 9d                	jmp    1947 <processor_emulate_cntlflowops+0xa7>
    19aa:	66 0f 1f 44 00 00    	nopw   0x0(%rax,%rax,1)
    19b0:	5b                   	pop    %rbx
    19b1:	b8 01 00 00 00       	mov    $0x1,%eax
    19b6:	5d                   	pop    %rbp
    19b7:	41 5c                	pop    %r12
    19b9:	41 5d                	pop    %r13
    19bb:	41 5e                	pop    %r14
    19bd:	c3                   	ret
    19be:	66 90                	xchg   %ax,%ax
    19c0:	8b 03                	mov    (%rbx),%eax
    19c2:	8d 50 e4             	lea    -0x1c(%rax),%edx
    19c5:	83 fa 12             	cmp    $0x12,%edx
    19c8:	77 e6                	ja     19b0 <processor_emulate_cntlflowops+0x110>
    19ca:	48 8d 0d 1f 33 00 00 	lea    0x331f(%rip),%rcx        # 4cf0 <__PRETTY_FUNCTION__.0+0x10>
    19d1:	48 63 04 91          	movslq (%rcx,%rdx,4),%rax
    19d5:	48 01 c8             	add    %rcx,%rax
    19d8:	3e ff e0             	notrack jmp *%rax
    19db:	0f 1f 44 00 00       	nopl   0x0(%rax,%rax,1)
    19e0:	8b 13                	mov    (%rbx),%edx
    19e2:	83 fa 2f             	cmp    $0x2f,%edx
    19e5:	0f 84 b5 01 00 00    	je     1ba0 <processor_emulate_cntlflowops+0x300>
    19eb:	b8 01 00 00 00       	mov    $0x1,%eax
    19f0:	83 fa 30             	cmp    $0x30,%edx
    19f3:	0f 85 67 ff ff ff    	jne    1960 <processor_emulate_cntlflowops+0xc0>
    19f9:	8b 73 18             	mov    0x18(%rbx),%esi
    19fc:	4c 89 ea             	mov    %r13,%rdx
    19ff:	48 89 ef             	mov    %rbp,%rdi
    1a02:	e8 19 0f 00 00       	call   2920 <registers_setreg>
    1a07:	4c 8b 6b 20          	mov    0x20(%rbx),%r13
    1a0b:	4d 01 e5             	add    %r12,%r13
    1a0e:	e9 34 ff ff ff       	jmp    1947 <processor_emulate_cntlflowops+0xa7>
    1a13:	0f 1f 44 00 00       	nopl   0x0(%rax,%rax,1)
    1a18:	8b 73 1c             	mov    0x1c(%rbx),%esi
    1a1b:	48 89 ef             	mov    %rbp,%rdi
    1a1e:	e8 ed 0e 00 00       	call   2910 <registers_getreg>
    1a23:	8b 73 20             	mov    0x20(%rbx),%esi
    1a26:	48 89 ef             	mov    %rbp,%rdi
    1a29:	49 89 c4             	mov    %rax,%r12
    1a2c:	e8 df 0e 00 00       	call   2910 <registers_getreg>
    1a31:	49 39 c4             	cmp    %rax,%r12
    1a34:	0f 9c c2             	setl   %dl
    1a37:	8b 73 18             	mov    0x18(%rbx),%esi
    1a3a:	48 89 ef             	mov    %rbp,%rdi
    1a3d:	0f b6 d2             	movzbl %dl,%edx
    1a40:	e8 db 0e 00 00       	call   2920 <registers_setreg>
    1a45:	e9 fd fe ff ff       	jmp    1947 <processor_emulate_cntlflowops+0xa7>
    1a4a:	66 0f 1f 44 00 00    	nopw   0x0(%rax,%rax,1)
    1a50:	8b 73 1c             	mov    0x1c(%rbx),%esi
    1a53:	48 89 ef             	mov    %rbp,%rdi
    1a56:	e8 b5 0e 00 00       	call   2910 <registers_getreg>
    1a5b:	48 3b 43 20          	cmp    0x20(%rbx),%rax
    1a5f:	eb d3                	jmp    1a34 <processor_emulate_cntlflowops+0x194>
    1a61:	0f 1f 80 00 00 00 00 	nopl   0x0(%rax)
    1a68:	8b 73 1c             	mov    0x1c(%rbx),%esi
    1a6b:	48 89 ef             	mov    %rbp,%rdi
    1a6e:	e8 9d 0e 00 00       	call   2910 <registers_getreg>
    1a73:	48 3b 43 20          	cmp    0x20(%rbx),%rax
    1a77:	e9 ba fe ff ff       	jmp    1936 <processor_emulate_cntlflowops+0x96>
    1a7c:	0f 1f 40 00          	nopl   0x0(%rax)
    1a80:	8b 73 18             	mov    0x18(%rbx),%esi
    1a83:	48 89 ef             	mov    %rbp,%rdi
    1a86:	e8 85 0e 00 00       	call   2910 <registers_getreg>
    1a8b:	8b 73 1c             	mov    0x1c(%rbx),%esi
    1a8e:	48 89 ef             	mov    %rbp,%rdi
    1a91:	49 89 c6             	mov    %rax,%r14
    1a94:	e8 77 0e 00 00       	call   2910 <registers_getreg>
    1a99:	49 39 c6             	cmp    %rax,%r14
    1a9c:	0f 85 a5 fe ff ff    	jne    1947 <processor_emulate_cntlflowops+0xa7>
    1aa2:	e9 60 ff ff ff       	jmp    1a07 <processor_emulate_cntlflowops+0x167>
    1aa7:	66 0f 1f 84 00 00 00 	nopw   0x0(%rax,%rax,1)
    1aae:	00 00 
    1ab0:	8b 73 18             	mov    0x18(%rbx),%esi
    1ab3:	48 89 ef             	mov    %rbp,%rdi
    1ab6:	e8 55 0e 00 00       	call   2910 <registers_getreg>
    1abb:	8b 73 1c             	mov    0x1c(%rbx),%esi
    1abe:	48 89 ef             	mov    %rbp,%rdi
    1ac1:	49 89 c6             	mov    %rax,%r14
    1ac4:	e8 47 0e 00 00       	call   2910 <registers_getreg>
    1ac9:	49 39 c6             	cmp    %rax,%r14
    1acc:	0f 85 35 ff ff ff    	jne    1a07 <processor_emulate_cntlflowops+0x167>
    1ad2:	e9 70 fe ff ff       	jmp    1947 <processor_emulate_cntlflowops+0xa7>
    1ad7:	66 0f 1f 84 00 00 00 	nopw   0x0(%rax,%rax,1)
    1ade:	00 00 
    1ae0:	8b 73 18             	mov    0x18(%rbx),%esi
    1ae3:	48 89 ef             	mov    %rbp,%rdi
    1ae6:	e8 25 0e 00 00       	call   2910 <registers_getreg>
    1aeb:	8b 73 1c             	mov    0x1c(%rbx),%esi
    1aee:	48 89 ef             	mov    %rbp,%rdi
    1af1:	49 89 c6             	mov    %rax,%r14
    1af4:	e8 17 0e 00 00       	call   2910 <registers_getreg>
    1af9:	49 39 c6             	cmp    %rax,%r14
    1afc:	0f 8d 45 fe ff ff    	jge    1947 <processor_emulate_cntlflowops+0xa7>
    1b02:	e9 00 ff ff ff       	jmp    1a07 <processor_emulate_cntlflowops+0x167>
    1b07:	66 0f 1f 84 00 00 00 	nopw   0x0(%rax,%rax,1)
    1b0e:	00 00 
    1b10:	8b 73 18             	mov    0x18(%rbx),%esi
    1b13:	48 89 ef             	mov    %rbp,%rdi
    1b16:	e8 f5 0d 00 00       	call   2910 <registers_getreg>
    1b1b:	8b 73 1c             	mov    0x1c(%rbx),%esi
    1b1e:	48 89 ef             	mov    %rbp,%rdi
    1b21:	49 89 c6             	mov    %rax,%r14
    1b24:	e8 e7 0d 00 00       	call   2910 <registers_getreg>
    1b29:	49 39 c6             	cmp    %rax,%r14
    1b2c:	0f 8c 15 fe ff ff    	jl     1947 <processor_emulate_cntlflowops+0xa7>
    1b32:	e9 d0 fe ff ff       	jmp    1a07 <processor_emulate_cntlflowops+0x167>
    1b37:	66 0f 1f 84 00 00 00 	nopw   0x0(%rax,%rax,1)
    1b3e:	00 00 
    1b40:	8b 73 18             	mov    0x18(%rbx),%esi
    1b43:	48 89 ef             	mov    %rbp,%rdi
    1b46:	e8 c5 0d 00 00       	call   2910 <registers_getreg>
    1b4b:	8b 73 1c             	mov    0x1c(%rbx),%esi
    1b4e:	48 89 ef             	mov    %rbp,%rdi
    1b51:	49 89 c6             	mov    %rax,%r14
    1b54:	e8 b7 0d 00 00       	call   2910 <registers_getreg>
    1b59:	49 39 c6             	cmp    %rax,%r14
    1b5c:	0f 83 e5 fd ff ff    	jae    1947 <processor_emulate_cntlflowops+0xa7>
    1b62:	e9 a0 fe ff ff       	jmp    1a07 <processor_emulate_cntlflowops+0x167>
    1b67:	66 0f 1f 84 00 00 00 	nopw   0x0(%rax,%rax,1)
    1b6e:	00 00 
    1b70:	8b 73 18             	mov    0x18(%rbx),%esi
    1b73:	48 89 ef             	mov    %rbp,%rdi
    1b76:	e8 95 0d 00 00       	call   2910 <registers_getreg>
    1b7b:	8b 73 1c             	mov    0x1c(%rbx),%esi
    1b7e:	48 89 ef             	mov    %rbp,%rdi
    1b81:	49 89 c6             	mov    %rax,%r14
    1b84:	e8 87 0d 00 00       	call   2910 <registers_getreg>
    1b89:	49 39 c6             	cmp    %rax,%r14
    1b8c:	0f 82 b5 fd ff ff    	jb     1947 <processor_emulate_cntlflowops+0xa7>
    1b92:	e9 70 fe ff ff       	jmp    1a07 <processor_emulate_cntlflowops+0x167>
    1b97:	66 0f 1f 84 00 00 00 	nopw   0x0(%rax,%rax,1)
    1b9e:	00 00 
    1ba0:	48 8b 53 20          	mov    0x20(%rbx),%rdx
    1ba4:	8b 73 18             	mov    0x18(%rbx),%esi
    1ba7:	48 89 ef             	mov    %rbp,%rdi
    1baa:	48 c1 e2 0c          	shl    $0xc,%rdx
    1bae:	4c 01 e2             	add    %r12,%rdx
    1bb1:	e8 6a 0d 00 00       	call   2920 <registers_setreg>
    1bb6:	e9 8c fd ff ff       	jmp    1947 <processor_emulate_cntlflowops+0xa7>
    1bbb:	48 8d 3d 26 26 00 00 	lea    0x2626(%rip),%rdi        # 41e8 <_IO_stdin_used+0x1e8>
    1bc2:	e8 a9 fc ff ff       	call   1870 <err>
    1bc7:	48 8d 3d ba 25 00 00 	lea    0x25ba(%rip),%rdi        # 4188 <_IO_stdin_used+0x188>
    1bce:	e8 9d fc ff ff       	call   1870 <err>
    1bd3:	48 8d 3d 5e 25 00 00 	lea    0x255e(%rip),%rdi        # 4138 <_IO_stdin_used+0x138>
    1bda:	e8 91 fc ff ff       	call   1870 <err>
    1bdf:	48 8d 3d 02 25 00 00 	lea    0x2502(%rip),%rdi        # 40e8 <_IO_stdin_used+0xe8>
    1be6:	e8 85 fc ff ff       	call   1870 <err>
    1beb:	48 8d 3d 96 24 00 00 	lea    0x2496(%rip),%rdi        # 4088 <_IO_stdin_used+0x88>
    1bf2:	e8 79 fc ff ff       	call   1870 <err>
    1bf7:	66 0f 1f 84 00 00 00 	nopw   0x0(%rax,%rax,1)
    1bfe:	00 00 

0000000000001c00 <instructions_parse>:
    1c00:	f3 0f 1e fa          	endbr64
    1c04:	41 57                	push   %r15
    1c06:	41 56                	push   %r14
    1c08:	41 55                	push   %r13
    1c0a:	49 89 f5             	mov    %rsi,%r13
    1c0d:	41 54                	push   %r12
    1c0f:	55                   	push   %rbp
    1c10:	53                   	push   %rbx
    1c11:	48 81 ec 68 01 00 00 	sub    $0x168,%rsp
    1c18:	64 48 8b 04 25 28 00 	mov    %fs:0x28,%rax
    1c1f:	00 00 
    1c21:	48 89 84 24 58 01 00 	mov    %rax,0x158(%rsp)
    1c28:	00 
    1c29:	31 c0                	xor    %eax,%eax
    1c2b:	48 8d 74 24 4c       	lea    0x4c(%rsp),%rsi
    1c30:	e8 db 11 00 00       	call   2e10 <lines>
    1c35:	49 89 c4             	mov    %rax,%r12
    1c38:	8b 44 24 4c          	mov    0x4c(%rsp),%eax
    1c3c:	85 c0                	test   %eax,%eax
    1c3e:	0f 8e cc 03 00 00    	jle    2010 <instructions_parse+0x410>
    1c44:	bf 10 00 00 00       	mov    $0x10,%edi
    1c49:	e8 d2 f5 ff ff       	call   1220 <malloc@plt>
    1c4e:	48 89 44 24 18       	mov    %rax,0x18(%rsp)
    1c53:	48 85 c0             	test   %rax,%rax
    1c56:	0f 84 25 04 00 00    	je     2081 <instructions_parse+0x481>
    1c5c:	49 8b 3c 24          	mov    (%r12),%rdi
    1c60:	4c 89 ea             	mov    %r13,%rdx
    1c63:	49 8d 4d 08          	lea    0x8(%r13),%rcx
    1c67:	4d 8d 4d 18          	lea    0x18(%r13),%r9
    1c6b:	4d 8d 45 10          	lea    0x10(%r13),%r8
    1c6f:	48 8d 35 c6 2c 00 00 	lea    0x2cc6(%rip),%rsi        # 493c <_IO_stdin_used+0x93c>
    1c76:	31 c0                	xor    %eax,%eax
    1c78:	e8 b3 f5 ff ff       	call   1230 <__isoc99_sscanf@plt>
    1c7d:	48 8d 15 c8 2c 00 00 	lea    0x2cc8(%rip),%rdx        # 494c <_IO_stdin_used+0x94c>
    1c84:	83 f8 04             	cmp    $0x4,%eax
    1c87:	0f 85 d9 01 00 00    	jne    1e66 <instructions_parse+0x266>
    1c8d:	8b 44 24 4c          	mov    0x4c(%rsp),%eax
    1c91:	8d 68 ff             	lea    -0x1(%rax),%ebp
    1c94:	48 63 c5             	movslq %ebp,%rax
    1c97:	89 6c 24 4c          	mov    %ebp,0x4c(%rsp)
    1c9b:	48 8d 3c 80          	lea    (%rax,%rax,4),%rdi
    1c9f:	48 c1 e7 03          	shl    $0x3,%rdi
    1ca3:	e8 78 f5 ff ff       	call   1220 <malloc@plt>
    1ca8:	48 89 c3             	mov    %rax,%rbx
    1cab:	48 85 c0             	test   %rax,%rax
    1cae:	0f 84 ec 03 00 00    	je     20a0 <instructions_parse+0x4a0>
    1cb4:	48 8b 44 24 18       	mov    0x18(%rsp),%rax
    1cb9:	48 89 58 08          	mov    %rbx,0x8(%rax)
    1cbd:	89 28                	mov    %ebp,(%rax)
    1cbf:	85 ed                	test   %ebp,%ebp
    1cc1:	0f 8e e0 01 00 00    	jle    1ea7 <instructions_parse+0x2a7>
    1cc7:	48 8d 44 24 40       	lea    0x40(%rsp),%rax
    1ccc:	45 31 ff             	xor    %r15d,%r15d
    1ccf:	48 8d 6c 24 50       	lea    0x50(%rsp),%rbp
    1cd4:	48 89 44 24 20       	mov    %rax,0x20(%rsp)
    1cd9:	48 8d 44 24 3c       	lea    0x3c(%rsp),%rax
    1cde:	48 89 44 24 10       	mov    %rax,0x10(%rsp)
    1ce3:	48 8d 44 24 38       	lea    0x38(%rsp),%rax
    1ce8:	48 89 44 24 08       	mov    %rax,0x8(%rsp)
    1ced:	4c 89 e8             	mov    %r13,%rax
    1cf0:	4d 89 fd             	mov    %r15,%r13
    1cf3:	49 89 c7             	mov    %rax,%r15
    1cf6:	e9 cc 00 00 00       	jmp    1dc7 <instructions_parse+0x1c7>
    1cfb:	0f 1f 44 00 00       	nopl   0x0(%rax,%rax,1)
    1d00:	48 8d 44 24 44       	lea    0x44(%rsp),%rax
    1d05:	4b 8b 7c ec 08       	mov    0x8(%r12,%r13,8),%rdi
    1d0a:	4c 8b 44 24 10       	mov    0x10(%rsp),%r8
    1d0f:	48 89 ea             	mov    %rbp,%rdx
    1d12:	48 8b 4c 24 08       	mov    0x8(%rsp),%rcx
    1d17:	48 89 44 24 28       	mov    %rax,0x28(%rsp)
    1d1c:	49 89 c1             	mov    %rax,%r9
    1d1f:	31 c0                	xor    %eax,%eax
    1d21:	48 8d 35 51 2c 00 00 	lea    0x2c51(%rip),%rsi        # 4979 <_IO_stdin_used+0x979>
    1d28:	e8 03 f5 ff ff       	call   1230 <__isoc99_sscanf@plt>
    1d2d:	83 f8 04             	cmp    $0x4,%eax
    1d30:	0f 84 a2 01 00 00    	je     1ed8 <instructions_parse+0x2d8>
    1d36:	4b 8b 7c ec 08       	mov    0x8(%r12,%r13,8),%rdi
    1d3b:	4c 8b 4c 24 08       	mov    0x8(%rsp),%r9
    1d40:	31 c0                	xor    %eax,%eax
    1d42:	48 89 ea             	mov    %rbp,%rdx
    1d45:	48 8b 4c 24 10       	mov    0x10(%rsp),%rcx
    1d4a:	4c 8d 44 24 48       	lea    0x48(%rsp),%r8
    1d4f:	48 8d 35 31 2c 00 00 	lea    0x2c31(%rip),%rsi        # 4987 <_IO_stdin_used+0x987>
    1d56:	e8 d5 f4 ff ff       	call   1230 <__isoc99_sscanf@plt>
    1d5b:	83 f8 04             	cmp    $0x4,%eax
    1d5e:	0f 84 cc 01 00 00    	je     1f30 <instructions_parse+0x330>
    1d64:	4b 8b 7c ec 08       	mov    0x8(%r12,%r13,8),%rdi
    1d69:	4c 8b 44 24 28       	mov    0x28(%rsp),%r8
    1d6e:	31 c0                	xor    %eax,%eax
    1d70:	48 89 ea             	mov    %rbp,%rdx
    1d73:	48 8b 4c 24 08       	mov    0x8(%rsp),%rcx
    1d78:	48 8d 35 17 2c 00 00 	lea    0x2c17(%rip),%rsi        # 4996 <_IO_stdin_used+0x996>
    1d7f:	e8 ac f4 ff ff       	call   1230 <__isoc99_sscanf@plt>
    1d84:	83 f8 03             	cmp    $0x3,%eax
    1d87:	0f 84 3b 02 00 00    	je     1fc8 <instructions_parse+0x3c8>
    1d8d:	4b 8b 7c ec 08       	mov    0x8(%r12,%r13,8),%rdi
    1d92:	48 8d 35 07 2c 00 00 	lea    0x2c07(%rip),%rsi        # 49a0 <_IO_stdin_used+0x9a0>
    1d99:	e8 72 f4 ff ff       	call   1210 <strcmp@plt>
    1d9e:	85 c0                	test   %eax,%eax
    1da0:	0f 84 da 01 00 00    	je     1f80 <instructions_parse+0x380>
    1da6:	8b 03                	mov    (%rbx),%eax
    1da8:	83 f8 33             	cmp    $0x33,%eax
    1dab:	0f 84 ae 00 00 00    	je     1e5f <instructions_parse+0x25f>
    1db1:	48 8b 44 24 18       	mov    0x18(%rsp),%rax
    1db6:	49 83 c5 01          	add    $0x1,%r13
    1dba:	48 83 c3 28          	add    $0x28,%rbx
    1dbe:	44 39 28             	cmp    %r13d,(%rax)
    1dc1:	0f 8e e0 00 00 00    	jle    1ea7 <instructions_parse+0x2a7>
    1dc7:	49 8b 07             	mov    (%r15),%rax
    1dca:	c7 03 33 00 00 00    	movl   $0x33,(%rbx)
    1dd0:	48 89 ea             	mov    %rbp,%rdx
    1dd3:	48 8d 35 90 2b 00 00 	lea    0x2b90(%rip),%rsi        # 496a <_IO_stdin_used+0x96a>
    1dda:	4b 8b 7c ec 08       	mov    0x8(%r12,%r13,8),%rdi
    1ddf:	4c 8b 4c 24 20       	mov    0x20(%rsp),%r9
    1de4:	4c 8b 44 24 10       	mov    0x10(%rsp),%r8
    1de9:	48 8b 4c 24 08       	mov    0x8(%rsp),%rcx
    1dee:	4e 8d 34 a8          	lea    (%rax,%r13,4),%r14
    1df2:	31 c0                	xor    %eax,%eax
    1df4:	e8 37 f4 ff ff       	call   1230 <__isoc99_sscanf@plt>
    1df9:	83 f8 04             	cmp    $0x4,%eax
    1dfc:	0f 85 fe fe ff ff    	jne    1d00 <instructions_parse+0x100>
    1e02:	48 89 ef             	mov    %rbp,%rdi
    1e05:	e8 e6 11 00 00       	call   2ff0 <instr_num>
    1e0a:	89 c7                	mov    %eax,%edi
    1e0c:	e8 5f 11 00 00       	call   2f70 <instr_format>
    1e11:	85 c0                	test   %eax,%eax
    1e13:	0f 85 27 02 00 00    	jne    2040 <instructions_parse+0x440>
    1e19:	48 89 ef             	mov    %rbp,%rdi
    1e1c:	e8 cf 11 00 00       	call   2ff0 <instr_num>
    1e21:	66 0f 6e 44 24 38    	movd   0x38(%rsp),%xmm0
    1e27:	66 0f 6e 54 24 3c    	movd   0x3c(%rsp),%xmm2
    1e2d:	66 0f ef c9          	pxor   %xmm1,%xmm1
    1e31:	8b 54 24 40          	mov    0x40(%rsp),%edx
    1e35:	0f 11 0b             	movups %xmm1,(%rbx)
    1e38:	66 0f 62 c2          	punpckldq %xmm2,%xmm0
    1e3c:	48 c7 43 20 00 00 00 	movq   $0x0,0x20(%rbx)
    1e43:	00 
    1e44:	0f 11 4b 10          	movups %xmm1,0x10(%rbx)
    1e48:	89 03                	mov    %eax,(%rbx)
    1e4a:	4c 89 73 08          	mov    %r14,0x8(%rbx)
    1e4e:	89 53 20             	mov    %edx,0x20(%rbx)
    1e51:	66 0f d6 43 18       	movq   %xmm0,0x18(%rbx)
    1e56:	83 f8 33             	cmp    $0x33,%eax
    1e59:	0f 85 52 ff ff ff    	jne    1db1 <instructions_parse+0x1b1>
    1e5f:	48 8d 15 40 2b 00 00 	lea    0x2b40(%rip),%rdx        # 49a6 <_IO_stdin_used+0x9a6>
    1e66:	48 8d 35 b1 2a 00 00 	lea    0x2ab1(%rip),%rsi        # 491e <_IO_stdin_used+0x91e>
    1e6d:	bf 02 00 00 00       	mov    $0x2,%edi
    1e72:	31 c0                	xor    %eax,%eax
    1e74:	e8 c7 f3 ff ff       	call   1240 <__printf_chk@plt>
    1e79:	4c 89 e7             	mov    %r12,%rdi
    1e7c:	e8 cf 10 00 00       	call   2f50 <free_lines>
    1e81:	48 8b 44 24 18       	mov    0x18(%rsp),%rax
    1e86:	48 8b 78 08          	mov    0x8(%rax),%rdi
    1e8a:	48 85 ff             	test   %rdi,%rdi
    1e8d:	74 05                	je     1e94 <instructions_parse+0x294>
    1e8f:	e8 dc f2 ff ff       	call   1170 <free@plt>
    1e94:	48 8b 7c 24 18       	mov    0x18(%rsp),%rdi
    1e99:	e8 d2 f2 ff ff       	call   1170 <free@plt>
    1e9e:	48 c7 44 24 18 00 00 	movq   $0x0,0x18(%rsp)
    1ea5:	00 00 
    1ea7:	48 8b 84 24 58 01 00 	mov    0x158(%rsp),%rax
    1eae:	00 
    1eaf:	64 48 2b 04 25 28 00 	sub    %fs:0x28,%rax
    1eb6:	00 00 
    1eb8:	0f 85 be 01 00 00    	jne    207c <instructions_parse+0x47c>
    1ebe:	48 8b 44 24 18       	mov    0x18(%rsp),%rax
    1ec3:	48 81 c4 68 01 00 00 	add    $0x168,%rsp
    1eca:	5b                   	pop    %rbx
    1ecb:	5d                   	pop    %rbp
    1ecc:	41 5c                	pop    %r12
    1ece:	41 5d                	pop    %r13
    1ed0:	41 5e                	pop    %r14
    1ed2:	41 5f                	pop    %r15
    1ed4:	c3                   	ret
    1ed5:	0f 1f 00             	nopl   (%rax)
    1ed8:	48 89 ef             	mov    %rbp,%rdi
    1edb:	e8 10 11 00 00       	call   2ff0 <instr_num>
    1ee0:	89 c7                	mov    %eax,%edi
    1ee2:	e8 89 10 00 00       	call   2f70 <instr_format>
    1ee7:	83 f8 01             	cmp    $0x1,%eax
    1eea:	0f 85 5c 01 00 00    	jne    204c <instructions_parse+0x44c>
    1ef0:	48 89 ef             	mov    %rbp,%rdi
    1ef3:	e8 f8 10 00 00       	call   2ff0 <instr_num>
    1ef8:	66 0f 6e 44 24 38    	movd   0x38(%rsp),%xmm0
    1efe:	66 0f 6e 5c 24 3c    	movd   0x3c(%rsp),%xmm3
    1f04:	4c 89 73 08          	mov    %r14,0x8(%rbx)
    1f08:	48 63 54 24 44       	movslq 0x44(%rsp),%rdx
    1f0d:	89 03                	mov    %eax,(%rbx)
    1f0f:	66 0f 62 c3          	punpckldq %xmm3,%xmm0
    1f13:	c7 43 10 01 00 00 00 	movl   $0x1,0x10(%rbx)
    1f1a:	48 89 53 20          	mov    %rdx,0x20(%rbx)
    1f1e:	66 0f d6 43 18       	movq   %xmm0,0x18(%rbx)
    1f23:	e9 80 fe ff ff       	jmp    1da8 <instructions_parse+0x1a8>
    1f28:	0f 1f 84 00 00 00 00 	nopl   0x0(%rax,%rax,1)
    1f2f:	00 
    1f30:	48 89 ef             	mov    %rbp,%rdi
    1f33:	e8 b8 10 00 00       	call   2ff0 <instr_num>
    1f38:	89 c7                	mov    %eax,%edi
    1f3a:	e8 31 10 00 00       	call   2f70 <instr_format>
    1f3f:	83 f8 03             	cmp    $0x3,%eax
    1f42:	0f 85 10 01 00 00    	jne    2058 <instructions_parse+0x458>
    1f48:	48 89 ef             	mov    %rbp,%rdi
    1f4b:	e8 a0 10 00 00       	call   2ff0 <instr_num>
    1f50:	66 0f 6e 44 24 3c    	movd   0x3c(%rsp),%xmm0
    1f56:	66 0f 6e 64 24 38    	movd   0x38(%rsp),%xmm4
    1f5c:	4c 89 73 08          	mov    %r14,0x8(%rbx)
    1f60:	48 63 54 24 48       	movslq 0x48(%rsp),%rdx
    1f65:	89 03                	mov    %eax,(%rbx)
    1f67:	66 0f 62 c4          	punpckldq %xmm4,%xmm0
    1f6b:	c7 43 10 03 00 00 00 	movl   $0x3,0x10(%rbx)
    1f72:	48 89 53 20          	mov    %rdx,0x20(%rbx)
    1f76:	66 0f d6 43 18       	movq   %xmm0,0x18(%rbx)
    1f7b:	e9 28 fe ff ff       	jmp    1da8 <instructions_parse+0x1a8>
    1f80:	48 89 ef             	mov    %rbp,%rdi
    1f83:	e8 68 10 00 00       	call   2ff0 <instr_num>
    1f88:	89 c7                	mov    %eax,%edi
    1f8a:	e8 e1 0f 00 00       	call   2f70 <instr_format>
    1f8f:	83 f8 04             	cmp    $0x4,%eax
    1f92:	0f 85 cc 00 00 00    	jne    2064 <instructions_parse+0x464>
    1f98:	48 89 ef             	mov    %rbp,%rdi
    1f9b:	e8 50 10 00 00       	call   2ff0 <instr_num>
    1fa0:	66 0f ef c0          	pxor   %xmm0,%xmm0
    1fa4:	48 c7 43 20 00 00 00 	movq   $0x0,0x20(%rbx)
    1fab:	00 
    1fac:	0f 11 03             	movups %xmm0,(%rbx)
    1faf:	0f 11 43 10          	movups %xmm0,0x10(%rbx)
    1fb3:	89 03                	mov    %eax,(%rbx)
    1fb5:	4c 89 73 08          	mov    %r14,0x8(%rbx)
    1fb9:	c7 43 10 04 00 00 00 	movl   $0x4,0x10(%rbx)
    1fc0:	e9 e3 fd ff ff       	jmp    1da8 <instructions_parse+0x1a8>
    1fc5:	0f 1f 00             	nopl   (%rax)
    1fc8:	48 89 ef             	mov    %rbp,%rdi
    1fcb:	e8 20 10 00 00       	call   2ff0 <instr_num>
    1fd0:	89 c7                	mov    %eax,%edi
    1fd2:	e8 99 0f 00 00       	call   2f70 <instr_format>
    1fd7:	83 f8 02             	cmp    $0x2,%eax
    1fda:	0f 85 90 00 00 00    	jne    2070 <instructions_parse+0x470>
    1fe0:	48 89 ef             	mov    %rbp,%rdi
    1fe3:	e8 08 10 00 00       	call   2ff0 <instr_num>
    1fe8:	48 63 54 24 44       	movslq 0x44(%rsp),%rdx
    1fed:	8b 4c 24 38          	mov    0x38(%rsp),%ecx
    1ff1:	4c 89 73 08          	mov    %r14,0x8(%rbx)
    1ff5:	89 03                	mov    %eax,(%rbx)
    1ff7:	c7 43 10 02 00 00 00 	movl   $0x2,0x10(%rbx)
    1ffe:	89 4b 18             	mov    %ecx,0x18(%rbx)
    2001:	48 89 53 20          	mov    %rdx,0x20(%rbx)
    2005:	e9 9e fd ff ff       	jmp    1da8 <instructions_parse+0x1a8>
    200a:	66 0f 1f 44 00 00    	nopw   0x0(%rax,%rax,1)
    2010:	31 c0                	xor    %eax,%eax
    2012:	48 8d 15 ed 28 00 00 	lea    0x28ed(%rip),%rdx        # 4906 <_IO_stdin_used+0x906>
    2019:	bf 02 00 00 00       	mov    $0x2,%edi
    201e:	48 8d 35 f9 28 00 00 	lea    0x28f9(%rip),%rsi        # 491e <_IO_stdin_used+0x91e>
    2025:	e8 16 f2 ff ff       	call   1240 <__printf_chk@plt>
    202a:	4d 85 e4             	test   %r12,%r12
    202d:	0f 84 6b fe ff ff    	je     1e9e <instructions_parse+0x29e>
    2033:	4c 89 e7             	mov    %r12,%rdi
    2036:	e8 15 0f 00 00       	call   2f50 <free_lines>
    203b:	e9 5e fe ff ff       	jmp    1e9e <instructions_parse+0x29e>
    2040:	48 8d 15 11 22 00 00 	lea    0x2211(%rip),%rdx        # 4258 <_IO_stdin_used+0x258>
    2047:	e9 1a fe ff ff       	jmp    1e66 <instructions_parse+0x266>
    204c:	48 8d 15 2d 22 00 00 	lea    0x222d(%rip),%rdx        # 4280 <_IO_stdin_used+0x280>
    2053:	e9 0e fe ff ff       	jmp    1e66 <instructions_parse+0x266>
    2058:	48 8d 15 49 22 00 00 	lea    0x2249(%rip),%rdx        # 42a8 <_IO_stdin_used+0x2a8>
    205f:	e9 02 fe ff ff       	jmp    1e66 <instructions_parse+0x266>
    2064:	48 8d 15 8d 22 00 00 	lea    0x228d(%rip),%rdx        # 42f8 <_IO_stdin_used+0x2f8>
    206b:	e9 f6 fd ff ff       	jmp    1e66 <instructions_parse+0x266>
    2070:	48 8d 15 59 22 00 00 	lea    0x2259(%rip),%rdx        # 42d0 <_IO_stdin_used+0x2d0>
    2077:	e9 ea fd ff ff       	jmp    1e66 <instructions_parse+0x266>
    207c:	e8 2f f1 ff ff       	call   11b0 <__stack_chk_fail@plt>
    2081:	48 8d 0d b8 2c 00 00 	lea    0x2cb8(%rip),%rcx        # 4d40 <__PRETTY_FUNCTION__.0>
    2088:	ba 28 00 00 00       	mov    $0x28,%edx
    208d:	48 8d 35 95 28 00 00 	lea    0x2895(%rip),%rsi        # 4929 <_IO_stdin_used+0x929>
    2094:	48 8d 3d 9d 28 00 00 	lea    0x289d(%rip),%rdi        # 4938 <_IO_stdin_used+0x938>
    209b:	e8 30 f1 ff ff       	call   11d0 <__assert_fail@plt>
    20a0:	48 8d 0d 99 2c 00 00 	lea    0x2c99(%rip),%rcx        # 4d40 <__PRETTY_FUNCTION__.0>
    20a7:	ba 31 00 00 00       	mov    $0x31,%edx
    20ac:	48 8d 35 76 28 00 00 	lea    0x2876(%rip),%rsi        # 4929 <_IO_stdin_used+0x929>
    20b3:	48 8d 3d aa 28 00 00 	lea    0x28aa(%rip),%rdi        # 4964 <_IO_stdin_used+0x964>
    20ba:	e8 11 f1 ff ff       	call   11d0 <__assert_fail@plt>
    20bf:	90                   	nop

00000000000020c0 <instructions_free>:
    20c0:	f3 0f 1e fa          	endbr64
    20c4:	53                   	push   %rbx
    20c5:	48 89 fb             	mov    %rdi,%rbx
    20c8:	48 8b 7f 08          	mov    0x8(%rdi),%rdi
    20cc:	48 85 ff             	test   %rdi,%rdi
    20cf:	74 05                	je     20d6 <instructions_free+0x16>
    20d1:	e8 9a f0 ff ff       	call   1170 <free@plt>
    20d6:	48 89 df             	mov    %rbx,%rdi
    20d9:	5b                   	pop    %rbx
    20da:	e9 91 f0 ff ff       	jmp    1170 <free@plt>
    20df:	90                   	nop

00000000000020e0 <err>:
    20e0:	50                   	push   %rax
    20e1:	58                   	pop    %rax
    20e2:	48 8d 15 3c 28 00 00 	lea    0x283c(%rip),%rdx        # 4925 <_IO_stdin_used+0x925>
    20e9:	be 02 00 00 00       	mov    $0x2,%esi
    20ee:	31 c0                	xor    %eax,%eax
    20f0:	48 83 ec 08          	sub    $0x8,%rsp
    20f4:	48 89 f9             	mov    %rdi,%rcx
    20f7:	48 8b 3d 22 4f 00 00 	mov    0x4f22(%rip),%rdi        # 7020 <stderr@GLIBC_2.2.5>
    20fe:	e8 6d f1 ff ff       	call   1270 <__fprintf_chk@plt>
    2103:	bf ff ff ff ff       	mov    $0xffffffff,%edi
    2108:	e8 43 f1 ff ff       	call   1250 <exit@plt>
    210d:	0f 1f 00             	nopl   (%rax)

0000000000002110 <memory_alloc>:
    2110:	f3 0f 1e fa          	endbr64
    2114:	55                   	push   %rbp
    2115:	48 89 fd             	mov    %rdi,%rbp
    2118:	bf 10 00 00 00       	mov    $0x10,%edi
    211d:	53                   	push   %rbx
    211e:	48 83 ec 08          	sub    $0x8,%rsp
    2122:	e8 f9 f0 ff ff       	call   1220 <malloc@plt>
    2127:	48 85 c0             	test   %rax,%rax
    212a:	74 26                	je     2152 <memory_alloc+0x42>
    212c:	be 01 00 00 00       	mov    $0x1,%esi
    2131:	48 89 ef             	mov    %rbp,%rdi
    2134:	48 89 c3             	mov    %rax,%rbx
    2137:	e8 c4 f0 ff ff       	call   1200 <calloc@plt>
    213c:	48 89 03             	mov    %rax,(%rbx)
    213f:	48 85 c0             	test   %rax,%rax
    2142:	74 2d                	je     2171 <memory_alloc+0x61>
    2144:	48 89 6b 08          	mov    %rbp,0x8(%rbx)
    2148:	48 83 c4 08          	add    $0x8,%rsp
    214c:	48 89 d8             	mov    %rbx,%rax
    214f:	5b                   	pop    %rbx
    2150:	5d                   	pop    %rbp
    2151:	c3                   	ret
    2152:	48 8d 0d 67 2c 00 00 	lea    0x2c67(%rip),%rcx        # 4dc0 <__PRETTY_FUNCTION__.0>
    2159:	ba 18 00 00 00       	mov    $0x18,%edx
    215e:	48 8d 35 e1 28 00 00 	lea    0x28e1(%rip),%rsi        # 4a46 <_IO_stdin_used+0xa46>
    2165:	48 8d 3d e8 28 00 00 	lea    0x28e8(%rip),%rdi        # 4a54 <_IO_stdin_used+0xa54>
    216c:	e8 5f f0 ff ff       	call   11d0 <__assert_fail@plt>
    2171:	48 8d 0d 48 2c 00 00 	lea    0x2c48(%rip),%rcx        # 4dc0 <__PRETTY_FUNCTION__.0>
    2178:	ba 1a 00 00 00       	mov    $0x1a,%edx
    217d:	48 8d 35 c2 28 00 00 	lea    0x28c2(%rip),%rsi        # 4a46 <_IO_stdin_used+0xa46>
    2184:	48 8d 3d c4 28 00 00 	lea    0x28c4(%rip),%rdi        # 4a4f <_IO_stdin_used+0xa4f>
    218b:	e8 40 f0 ff ff       	call   11d0 <__assert_fail@plt>

0000000000002190 <memory_free>:
    2190:	f3 0f 1e fa          	endbr64
    2194:	53                   	push   %rbx
    2195:	48 89 fb             	mov    %rdi,%rbx
    2198:	48 8b 3f             	mov    (%rdi),%rdi
    219b:	e8 d0 ef ff ff       	call   1170 <free@plt>
    21a0:	48 89 df             	mov    %rbx,%rdi
    21a3:	5b                   	pop    %rbx
    21a4:	e9 c7 ef ff ff       	jmp    1170 <free@plt>
    21a9:	0f 1f 80 00 00 00 00 	nopl   0x0(%rax)

00000000000021b0 <memory_getsize>:
    21b0:	f3 0f 1e fa          	endbr64
    21b4:	48 8b 47 08          	mov    0x8(%rdi),%rax
    21b8:	c3                   	ret
    21b9:	0f 1f 80 00 00 00 00 	nopl   0x0(%rax)

00000000000021c0 <memory_getbyte>:
    21c0:	f3 0f 1e fa          	endbr64
    21c4:	48 3b 77 08          	cmp    0x8(%rdi),%rsi
    21c8:	73 08                	jae    21d2 <memory_getbyte+0x12>
    21ca:	48 8b 07             	mov    (%rdi),%rax
    21cd:	0f b6 04 30          	movzbl (%rax,%rsi,1),%eax
    21d1:	c3                   	ret
    21d2:	50                   	push   %rax
    21d3:	48 8b 3d 46 4e 00 00 	mov    0x4e46(%rip),%rdi        # 7020 <stderr@GLIBC_2.2.5>
    21da:	48 89 f1             	mov    %rsi,%rcx
    21dd:	31 c0                	xor    %eax,%eax
    21df:	48 8d 15 c2 21 00 00 	lea    0x21c2(%rip),%rdx        # 43a8 <_IO_stdin_used+0x3a8>
    21e6:	be 02 00 00 00       	mov    $0x2,%esi
    21eb:	e8 80 f0 ff ff       	call   1270 <__fprintf_chk@plt>
    21f0:	83 cf ff             	or     $0xffffffff,%edi
    21f3:	e8 58 f0 ff ff       	call   1250 <exit@plt>
    21f8:	0f 1f 84 00 00 00 00 	nopl   0x0(%rax,%rax,1)
    21ff:	00 

0000000000002200 <processor_emulate_memops>:
    2200:	f3 0f 1e fa          	endbr64
    2204:	41 57                	push   %r15
    2206:	41 56                	push   %r14
    2208:	41 55                	push   %r13
    220a:	41 54                	push   %r12
    220c:	55                   	push   %rbp
    220d:	53                   	push   %rbx
    220e:	48 83 ec 18          	sub    $0x18,%rsp
    2212:	4c 8b 77 50          	mov    0x50(%rdi),%r14
    2216:	4d 85 f6             	test   %r14,%r14
    2219:	0f 84 58 04 00 00    	je     2677 <processor_emulate_memops+0x477>
    221f:	48 89 f5             	mov    %rsi,%rbp
    2222:	48 85 f6             	test   %rsi,%rsi
    2225:	0f 84 40 04 00 00    	je     266b <processor_emulate_memops+0x46b>
    222b:	49 89 d5             	mov    %rdx,%r13
    222e:	48 85 d2             	test   %rdx,%rdx
    2231:	0f 84 70 04 00 00    	je     26a7 <processor_emulate_memops+0x4a7>
    2237:	4c 8b 7f 58          	mov    0x58(%rdi),%r15
    223b:	48 89 fb             	mov    %rdi,%rbx
    223e:	4d 85 ff             	test   %r15,%r15
    2241:	0f 84 54 04 00 00    	je     269b <processor_emulate_memops+0x49b>
    2247:	48 8b 47 48          	mov    0x48(%rdi),%rax
    224b:	48 85 c0             	test   %rax,%rax
    224e:	0f 84 3b 04 00 00    	je     268f <processor_emulate_memops+0x48f>
    2254:	48 83 78 08 00       	cmpq   $0x0,0x8(%rax)
    2259:	0f 84 24 04 00 00    	je     2683 <processor_emulate_memops+0x483>
    225f:	4c 89 f7             	mov    %r14,%rdi
    2262:	e8 c9 06 00 00       	call   2930 <registers_getpc>
    2267:	8b 7d 00             	mov    0x0(%rbp),%edi
    226a:	41 89 c4             	mov    %eax,%r12d
    226d:	e8 fe 0c 00 00       	call   2f70 <instr_format>
    2272:	ba 01 00 00 00       	mov    $0x1,%edx
    2277:	83 f8 03             	cmp    $0x3,%eax
    227a:	75 4e                	jne    22ca <processor_emulate_memops+0xca>
    227c:	8b 45 00             	mov    0x0(%rbp),%eax
    227f:	83 e8 1e             	sub    $0x1e,%eax
    2282:	83 f8 0a             	cmp    $0xa,%eax
    2285:	77 43                	ja     22ca <processor_emulate_memops+0xca>
    2287:	48 8d 15 02 2b 00 00 	lea    0x2b02(%rip),%rdx        # 4d90 <__PRETTY_FUNCTION__.1+0x1e>
    228e:	8b 75 1c             	mov    0x1c(%rbp),%esi
    2291:	4c 89 f7             	mov    %r14,%rdi
    2294:	48 63 04 82          	movslq (%rdx,%rax,4),%rax
    2298:	48 01 d0             	add    %rdx,%rax
    229b:	3e ff e0             	notrack jmp *%rax
    229e:	66 90                	xchg   %ax,%ax
    22a0:	4d 89 e0             	mov    %r12,%r8
    22a3:	48 8b 3d 76 4d 00 00 	mov    0x4d76(%rip),%rdi        # 7020 <stderr@GLIBC_2.2.5>
    22aa:	48 8d 15 37 23 00 00 	lea    0x2337(%rip),%rdx        # 45e8 <_IO_stdin_used+0x5e8>
    22b1:	be 02 00 00 00       	mov    $0x2,%esi
    22b6:	31 c0                	xor    %eax,%eax
    22b8:	e8 b3 ef ff ff       	call   1270 <__fprintf_chk@plt>
    22bd:	41 c7 45 00 01 00 00 	movl   $0x1,0x0(%r13)
    22c4:	00 
    22c5:	ba ff ff ff ff       	mov    $0xffffffff,%edx
    22ca:	48 83 c4 18          	add    $0x18,%rsp
    22ce:	89 d0                	mov    %edx,%eax
    22d0:	5b                   	pop    %rbx
    22d1:	5d                   	pop    %rbp
    22d2:	41 5c                	pop    %r12
    22d4:	41 5d                	pop    %r13
    22d6:	41 5e                	pop    %r14
    22d8:	41 5f                	pop    %r15
    22da:	c3                   	ret
    22db:	0f 1f 44 00 00       	nopl   0x0(%rax,%rax,1)
    22e0:	e8 2b 06 00 00       	call   2910 <registers_getreg>
    22e5:	48 03 45 20          	add    0x20(%rbp),%rax
    22e9:	48 89 c1             	mov    %rax,%rcx
    22ec:	48 3b 43 18          	cmp    0x18(%rbx),%rax
    22f0:	73 ae                	jae    22a0 <processor_emulate_memops+0xa0>
    22f2:	48 3b 43 08          	cmp    0x8(%rbx),%rax
    22f6:	72 a8                	jb     22a0 <processor_emulate_memops+0xa0>
    22f8:	48 8b 7b 60          	mov    0x60(%rbx),%rdi
    22fc:	48 89 c6             	mov    %rax,%rsi
    22ff:	48 89 44 24 08       	mov    %rax,0x8(%rsp)
    2304:	e8 37 f4 ff ff       	call   1740 <cache_access>
    2309:	49 8b 07             	mov    (%r15),%rax
    230c:	48 8b 4c 24 08       	mov    0x8(%rsp),%rcx
    2311:	4c 89 f7             	mov    %r14,%rdi
    2314:	8b 75 18             	mov    0x18(%rbp),%esi
    2317:	48 8b 14 08          	mov    (%rax,%rcx,1),%rdx
    231b:	e8 00 06 00 00       	call   2920 <registers_setreg>
    2320:	49 8d 74 24 04       	lea    0x4(%r12),%rsi
    2325:	4c 89 f7             	mov    %r14,%rdi
    2328:	e8 13 06 00 00       	call   2940 <registers_setpc>
    232d:	31 d2                	xor    %edx,%edx
    232f:	31 f6                	xor    %esi,%esi
    2331:	4c 89 f7             	mov    %r14,%rdi
    2334:	e8 e7 05 00 00       	call   2920 <registers_setreg>
    2339:	31 d2                	xor    %edx,%edx
    233b:	eb 8d                	jmp    22ca <processor_emulate_memops+0xca>
    233d:	0f 1f 00             	nopl   (%rax)
    2340:	e8 cb 05 00 00       	call   2910 <registers_getreg>
    2345:	48 03 45 20          	add    0x20(%rbp),%rax
    2349:	48 3b 43 18          	cmp    0x18(%rbx),%rax
    234d:	0f 83 0d 03 00 00    	jae    2660 <processor_emulate_memops+0x460>
    2353:	48 3b 43 08          	cmp    0x8(%rbx),%rax
    2357:	0f 82 03 03 00 00    	jb     2660 <processor_emulate_memops+0x460>
    235d:	48 8b 7b 60          	mov    0x60(%rbx),%rdi
    2361:	48 89 c6             	mov    %rax,%rsi
    2364:	48 89 44 24 08       	mov    %rax,0x8(%rsp)
    2369:	e8 d2 f3 ff ff       	call   1740 <cache_access>
    236e:	8b 75 18             	mov    0x18(%rbp),%esi
    2371:	48 8b 44 24 08       	mov    0x8(%rsp),%rax
    2376:	4c 89 f7             	mov    %r14,%rdi
    2379:	49 03 07             	add    (%r15),%rax
    237c:	48 89 c3             	mov    %rax,%rbx
    237f:	e8 8c 05 00 00       	call   2910 <registers_getreg>
    2384:	48 89 03             	mov    %rax,(%rbx)
    2387:	eb 97                	jmp    2320 <processor_emulate_memops+0x120>
    2389:	0f 1f 80 00 00 00 00 	nopl   0x0(%rax)
    2390:	e8 7b 05 00 00       	call   2910 <registers_getreg>
    2395:	48 03 45 20          	add    0x20(%rbp),%rax
    2399:	48 89 c1             	mov    %rax,%rcx
    239c:	48 3b 43 18          	cmp    0x18(%rbx),%rax
    23a0:	0f 83 fa fe ff ff    	jae    22a0 <processor_emulate_memops+0xa0>
    23a6:	48 3b 43 08          	cmp    0x8(%rbx),%rax
    23aa:	0f 82 f0 fe ff ff    	jb     22a0 <processor_emulate_memops+0xa0>
    23b0:	48 8b 7b 60          	mov    0x60(%rbx),%rdi
    23b4:	48 89 c6             	mov    %rax,%rsi
    23b7:	48 89 44 24 08       	mov    %rax,0x8(%rsp)
    23bc:	e8 7f f3 ff ff       	call   1740 <cache_access>
    23c1:	8b 75 18             	mov    0x18(%rbp),%esi
    23c4:	4c 89 f7             	mov    %r14,%rdi
    23c7:	e8 44 05 00 00       	call   2910 <registers_getreg>
    23cc:	48 8b 4c 24 08       	mov    0x8(%rsp),%rcx
    23d1:	48 89 c2             	mov    %rax,%rdx
    23d4:	49 8b 07             	mov    (%r15),%rax
    23d7:	66 89 14 08          	mov    %dx,(%rax,%rcx,1)
    23db:	e9 40 ff ff ff       	jmp    2320 <processor_emulate_memops+0x120>
    23e0:	e8 2b 05 00 00       	call   2910 <registers_getreg>
    23e5:	48 03 45 20          	add    0x20(%rbp),%rax
    23e9:	48 89 c1             	mov    %rax,%rcx
    23ec:	48 3b 43 18          	cmp    0x18(%rbx),%rax
    23f0:	0f 83 aa fe ff ff    	jae    22a0 <processor_emulate_memops+0xa0>
    23f6:	48 3b 43 08          	cmp    0x8(%rbx),%rax
    23fa:	0f 82 a0 fe ff ff    	jb     22a0 <processor_emulate_memops+0xa0>
    2400:	48 8b 7b 60          	mov    0x60(%rbx),%rdi
    2404:	48 89 c6             	mov    %rax,%rsi
    2407:	48 89 44 24 08       	mov    %rax,0x8(%rsp)
    240c:	e8 2f f3 ff ff       	call   1740 <cache_access>
    2411:	8b 75 18             	mov    0x18(%rbp),%esi
    2414:	4c 89 f7             	mov    %r14,%rdi
    2417:	e8 f4 04 00 00       	call   2910 <registers_getreg>
    241c:	48 8b 4c 24 08       	mov    0x8(%rsp),%rcx
    2421:	48 89 c2             	mov    %rax,%rdx
    2424:	49 8b 07             	mov    (%r15),%rax
    2427:	88 14 08             	mov    %dl,(%rax,%rcx,1)
    242a:	e9 f1 fe ff ff       	jmp    2320 <processor_emulate_memops+0x120>
    242f:	90                   	nop
    2430:	e8 db 04 00 00       	call   2910 <registers_getreg>
    2435:	48 03 45 20          	add    0x20(%rbp),%rax
    2439:	48 89 c1             	mov    %rax,%rcx
    243c:	48 3b 43 18          	cmp    0x18(%rbx),%rax
    2440:	0f 83 5a fe ff ff    	jae    22a0 <processor_emulate_memops+0xa0>
    2446:	48 3b 43 08          	cmp    0x8(%rbx),%rax
    244a:	0f 82 50 fe ff ff    	jb     22a0 <processor_emulate_memops+0xa0>
    2450:	48 8b 7b 60          	mov    0x60(%rbx),%rdi
    2454:	48 89 c6             	mov    %rax,%rsi
    2457:	48 89 44 24 08       	mov    %rax,0x8(%rsp)
    245c:	e8 df f2 ff ff       	call   1740 <cache_access>
    2461:	49 8b 07             	mov    (%r15),%rax
    2464:	48 8b 4c 24 08       	mov    0x8(%rsp),%rcx
    2469:	4c 89 f7             	mov    %r14,%rdi
    246c:	8b 75 18             	mov    0x18(%rbp),%esi
    246f:	48 63 14 08          	movslq (%rax,%rcx,1),%rdx
    2473:	e8 a8 04 00 00       	call   2920 <registers_setreg>
    2478:	e9 a3 fe ff ff       	jmp    2320 <processor_emulate_memops+0x120>
    247d:	0f 1f 00             	nopl   (%rax)
    2480:	e8 8b 04 00 00       	call   2910 <registers_getreg>
    2485:	48 03 45 20          	add    0x20(%rbp),%rax
    2489:	48 89 c1             	mov    %rax,%rcx
    248c:	48 3b 43 18          	cmp    0x18(%rbx),%rax
    2490:	0f 83 0a fe ff ff    	jae    22a0 <processor_emulate_memops+0xa0>
    2496:	48 3b 43 08          	cmp    0x8(%rbx),%rax
    249a:	0f 82 00 fe ff ff    	jb     22a0 <processor_emulate_memops+0xa0>
    24a0:	48 8b 7b 60          	mov    0x60(%rbx),%rdi
    24a4:	48 89 c6             	mov    %rax,%rsi
    24a7:	48 89 44 24 08       	mov    %rax,0x8(%rsp)
    24ac:	e8 8f f2 ff ff       	call   1740 <cache_access>
    24b1:	49 8b 07             	mov    (%r15),%rax
    24b4:	48 8b 4c 24 08       	mov    0x8(%rsp),%rcx
    24b9:	4c 89 f7             	mov    %r14,%rdi
    24bc:	8b 75 18             	mov    0x18(%rbp),%esi
    24bf:	0f b6 14 08          	movzbl (%rax,%rcx,1),%edx
    24c3:	e8 58 04 00 00       	call   2920 <registers_setreg>
    24c8:	e9 53 fe ff ff       	jmp    2320 <processor_emulate_memops+0x120>
    24cd:	0f 1f 00             	nopl   (%rax)
    24d0:	e8 3b 04 00 00       	call   2910 <registers_getreg>
    24d5:	48 03 45 20          	add    0x20(%rbp),%rax
    24d9:	48 89 c1             	mov    %rax,%rcx
    24dc:	48 3b 43 18          	cmp    0x18(%rbx),%rax
    24e0:	0f 83 ba fd ff ff    	jae    22a0 <processor_emulate_memops+0xa0>
    24e6:	48 3b 43 08          	cmp    0x8(%rbx),%rax
    24ea:	0f 82 b0 fd ff ff    	jb     22a0 <processor_emulate_memops+0xa0>
    24f0:	48 8b 7b 60          	mov    0x60(%rbx),%rdi
    24f4:	48 89 c6             	mov    %rax,%rsi
    24f7:	48 89 44 24 08       	mov    %rax,0x8(%rsp)
    24fc:	e8 3f f2 ff ff       	call   1740 <cache_access>
    2501:	49 8b 07             	mov    (%r15),%rax
    2504:	48 8b 4c 24 08       	mov    0x8(%rsp),%rcx
    2509:	4c 89 f7             	mov    %r14,%rdi
    250c:	8b 75 18             	mov    0x18(%rbp),%esi
    250f:	0f b7 14 08          	movzwl (%rax,%rcx,1),%edx
    2513:	e8 08 04 00 00       	call   2920 <registers_setreg>
    2518:	e9 03 fe ff ff       	jmp    2320 <processor_emulate_memops+0x120>
    251d:	0f 1f 00             	nopl   (%rax)
    2520:	e8 eb 03 00 00       	call   2910 <registers_getreg>
    2525:	48 03 45 20          	add    0x20(%rbp),%rax
    2529:	48 89 c1             	mov    %rax,%rcx
    252c:	48 3b 43 18          	cmp    0x18(%rbx),%rax
    2530:	0f 83 6a fd ff ff    	jae    22a0 <processor_emulate_memops+0xa0>
    2536:	48 3b 43 08          	cmp    0x8(%rbx),%rax
    253a:	0f 82 60 fd ff ff    	jb     22a0 <processor_emulate_memops+0xa0>
    2540:	48 8b 7b 60          	mov    0x60(%rbx),%rdi
    2544:	48 89 c6             	mov    %rax,%rsi
    2547:	48 89 44 24 08       	mov    %rax,0x8(%rsp)
    254c:	e8 ef f1 ff ff       	call   1740 <cache_access>
    2551:	49 8b 07             	mov    (%r15),%rax
    2554:	48 8b 4c 24 08       	mov    0x8(%rsp),%rcx
    2559:	4c 89 f7             	mov    %r14,%rdi
    255c:	8b 75 18             	mov    0x18(%rbp),%esi
    255f:	8b 14 08             	mov    (%rax,%rcx,1),%edx
    2562:	e8 b9 03 00 00       	call   2920 <registers_setreg>
    2567:	e9 b4 fd ff ff       	jmp    2320 <processor_emulate_memops+0x120>
    256c:	0f 1f 40 00          	nopl   0x0(%rax)
    2570:	e8 9b 03 00 00       	call   2910 <registers_getreg>
    2575:	48 03 45 20          	add    0x20(%rbp),%rax
    2579:	48 89 c1             	mov    %rax,%rcx
    257c:	48 3b 43 18          	cmp    0x18(%rbx),%rax
    2580:	0f 83 1a fd ff ff    	jae    22a0 <processor_emulate_memops+0xa0>
    2586:	48 3b 43 08          	cmp    0x8(%rbx),%rax
    258a:	0f 82 10 fd ff ff    	jb     22a0 <processor_emulate_memops+0xa0>
    2590:	48 8b 7b 60          	mov    0x60(%rbx),%rdi
    2594:	48 89 c6             	mov    %rax,%rsi
    2597:	48 89 44 24 08       	mov    %rax,0x8(%rsp)
    259c:	e8 9f f1 ff ff       	call   1740 <cache_access>
    25a1:	49 8b 07             	mov    (%r15),%rax
    25a4:	48 8b 4c 24 08       	mov    0x8(%rsp),%rcx
    25a9:	4c 89 f7             	mov    %r14,%rdi
    25ac:	8b 75 18             	mov    0x18(%rbp),%esi
    25af:	48 0f be 14 08       	movsbq (%rax,%rcx,1),%rdx
    25b4:	e8 67 03 00 00       	call   2920 <registers_setreg>
    25b9:	e9 62 fd ff ff       	jmp    2320 <processor_emulate_memops+0x120>
    25be:	66 90                	xchg   %ax,%ax
    25c0:	e8 4b 03 00 00       	call   2910 <registers_getreg>
    25c5:	48 03 45 20          	add    0x20(%rbp),%rax
    25c9:	48 89 c1             	mov    %rax,%rcx
    25cc:	48 3b 43 18          	cmp    0x18(%rbx),%rax
    25d0:	0f 83 ca fc ff ff    	jae    22a0 <processor_emulate_memops+0xa0>
    25d6:	48 3b 43 08          	cmp    0x8(%rbx),%rax
    25da:	0f 82 c0 fc ff ff    	jb     22a0 <processor_emulate_memops+0xa0>
    25e0:	48 8b 7b 60          	mov    0x60(%rbx),%rdi
    25e4:	48 89 c6             	mov    %rax,%rsi
    25e7:	48 89 44 24 08       	mov    %rax,0x8(%rsp)
    25ec:	e8 4f f1 ff ff       	call   1740 <cache_access>
    25f1:	49 8b 07             	mov    (%r15),%rax
    25f4:	48 8b 4c 24 08       	mov    0x8(%rsp),%rcx
    25f9:	4c 89 f7             	mov    %r14,%rdi
    25fc:	8b 75 18             	mov    0x18(%rbp),%esi
    25ff:	48 0f bf 14 08       	movswq (%rax,%rcx,1),%rdx
    2604:	e8 17 03 00 00       	call   2920 <registers_setreg>
    2609:	e9 12 fd ff ff       	jmp    2320 <processor_emulate_memops+0x120>
    260e:	66 90                	xchg   %ax,%ax
    2610:	e8 fb 02 00 00       	call   2910 <registers_getreg>
    2615:	48 03 45 20          	add    0x20(%rbp),%rax
    2619:	48 89 c1             	mov    %rax,%rcx
    261c:	48 3b 43 18          	cmp    0x18(%rbx),%rax
    2620:	0f 83 7a fc ff ff    	jae    22a0 <processor_emulate_memops+0xa0>
    2626:	48 3b 43 08          	cmp    0x8(%rbx),%rax
    262a:	0f 82 70 fc ff ff    	jb     22a0 <processor_emulate_memops+0xa0>
    2630:	48 8b 7b 60          	mov    0x60(%rbx),%rdi
    2634:	48 89 c6             	mov    %rax,%rsi
    2637:	48 89 44 24 08       	mov    %rax,0x8(%rsp)
    263c:	e8 ff f0 ff ff       	call   1740 <cache_access>
    2641:	8b 75 18             	mov    0x18(%rbp),%esi
    2644:	4c 89 f7             	mov    %r14,%rdi
    2647:	e8 c4 02 00 00       	call   2910 <registers_getreg>
    264c:	48 8b 4c 24 08       	mov    0x8(%rsp),%rcx
    2651:	48 89 c2             	mov    %rax,%rdx
    2654:	49 8b 07             	mov    (%r15),%rax
    2657:	89 14 08             	mov    %edx,(%rax,%rcx,1)
    265a:	e9 c1 fc ff ff       	jmp    2320 <processor_emulate_memops+0x120>
    265f:	90                   	nop
    2660:	4d 89 e0             	mov    %r12,%r8
    2663:	48 89 c1             	mov    %rax,%rcx
    2666:	e9 38 fc ff ff       	jmp    22a3 <processor_emulate_memops+0xa3>
    266b:	48 8d 3d c6 1d 00 00 	lea    0x1dc6(%rip),%rdi        # 4438 <_IO_stdin_used+0x438>
    2672:	e8 69 fa ff ff       	call   20e0 <err>
    2677:	48 8d 3d 62 1d 00 00 	lea    0x1d62(%rip),%rdi        # 43e0 <_IO_stdin_used+0x3e0>
    267e:	e8 5d fa ff ff       	call   20e0 <err>
    2683:	48 8d 3d f6 1e 00 00 	lea    0x1ef6(%rip),%rdi        # 4580 <_IO_stdin_used+0x580>
    268a:	e8 51 fa ff ff       	call   20e0 <err>
    268f:	48 8d 3d 92 1e 00 00 	lea    0x1e92(%rip),%rdi        # 4528 <_IO_stdin_used+0x528>
    2696:	e8 45 fa ff ff       	call   20e0 <err>
    269b:	48 8d 3d 2e 1e 00 00 	lea    0x1e2e(%rip),%rdi        # 44d0 <_IO_stdin_used+0x4d0>
    26a2:	e8 39 fa ff ff       	call   20e0 <err>
    26a7:	48 8d 3d da 1d 00 00 	lea    0x1dda(%rip),%rdi        # 4488 <_IO_stdin_used+0x488>
    26ae:	e8 2d fa ff ff       	call   20e0 <err>
    26b3:	66 2e 0f 1f 84 00 00 	cs nopw 0x0(%rax,%rax,1)
    26ba:	00 00 00 
    26bd:	0f 1f 00             	nopl   (%rax)

00000000000026c0 <processor_emulate>:
    26c0:	f3 0f 1e fa          	endbr64
    26c4:	41 55                	push   %r13
    26c6:	4c 8d 2d 5b 1f 00 00 	lea    0x1f5b(%rip),%r13        # 4628 <_IO_stdin_used+0x628>
    26cd:	41 54                	push   %r12
    26cf:	55                   	push   %rbp
    26d0:	48 89 fd             	mov    %rdi,%rbp
    26d3:	53                   	push   %rbx
    26d4:	48 83 ec 18          	sub    $0x18,%rsp
    26d8:	64 48 8b 04 25 28 00 	mov    %fs:0x28,%rax
    26df:	00 00 
    26e1:	48 89 44 24 08       	mov    %rax,0x8(%rsp)
    26e6:	31 c0                	xor    %eax,%eax
    26e8:	4c 8d 64 24 04       	lea    0x4(%rsp),%r12
    26ed:	e8 ce 0d 00 00       	call   34c0 <processor_registers_printall>
    26f2:	eb 5d                	jmp    2751 <processor_emulate+0x91>
    26f4:	0f 1f 40 00          	nopl   0x0(%rax)
    26f8:	4c 89 e2             	mov    %r12,%rdx
    26fb:	48 89 de             	mov    %rbx,%rsi
    26fe:	48 89 ef             	mov    %rbp,%rdi
    2701:	e8 4a 02 00 00       	call   2950 <processor_emulate_regops>
    2706:	85 c0                	test   %eax,%eax
    2708:	0f 88 b2 00 00 00    	js     27c0 <processor_emulate+0x100>
    270e:	4c 89 e2             	mov    %r12,%rdx
    2711:	48 89 de             	mov    %rbx,%rsi
    2714:	48 89 ef             	mov    %rbp,%rdi
    2717:	e8 e4 fa ff ff       	call   2200 <processor_emulate_memops>
    271c:	85 c0                	test   %eax,%eax
    271e:	0f 88 9c 00 00 00    	js     27c0 <processor_emulate+0x100>
    2724:	4c 89 e2             	mov    %r12,%rdx
    2727:	48 89 de             	mov    %rbx,%rsi
    272a:	48 89 ef             	mov    %rbp,%rdi
    272d:	e8 6e f1 ff ff       	call   18a0 <processor_emulate_cntlflowops>
    2732:	85 c0                	test   %eax,%eax
    2734:	0f 88 86 00 00 00    	js     27c0 <processor_emulate+0x100>
    273a:	48 89 ef             	mov    %rbp,%rdi
    273d:	e8 1e 0e 00 00       	call   3560 <processor_memory_print>
    2742:	48 83 7d 28 00       	cmpq   $0x0,0x28(%rbp)
    2747:	75 67                	jne    27b0 <processor_emulate+0xf0>
    2749:	4c 89 ef             	mov    %r13,%rdi
    274c:	e8 4f ea ff ff       	call   11a0 <puts@plt>
    2751:	48 8b 7d 50          	mov    0x50(%rbp),%rdi
    2755:	e8 d6 01 00 00       	call   2930 <registers_getpc>
    275a:	89 c3                	mov    %eax,%ebx
    275c:	48 8b 45 00          	mov    0x0(%rbp),%rax
    2760:	48 39 c3             	cmp    %rax,%rbx
    2763:	72 06                	jb     276b <processor_emulate+0xab>
    2765:	48 3b 5d 08          	cmp    0x8(%rbp),%rbx
    2769:	72 0e                	jb     2779 <processor_emulate+0xb9>
    276b:	31 f6                	xor    %esi,%esi
    276d:	48 89 ef             	mov    %rbp,%rdi
    2770:	e8 9b 0f 00 00       	call   3710 <processor_print_exception>
    2775:	48 8b 45 00          	mov    0x0(%rbp),%rax
    2779:	48 29 c3             	sub    %rax,%rbx
    277c:	48 8b 55 48          	mov    0x48(%rbp),%rdx
    2780:	48 89 d8             	mov    %rbx,%rax
    2783:	48 83 e3 fc          	and    $0xfffffffffffffffc,%rbx
    2787:	48 c1 e8 02          	shr    $0x2,%rax
    278b:	48 01 c3             	add    %rax,%rbx
    278e:	48 8b 42 08          	mov    0x8(%rdx),%rax
    2792:	48 83 7d 20 00       	cmpq   $0x0,0x20(%rbp)
    2797:	48 8d 1c d8          	lea    (%rax,%rbx,8),%rbx
    279b:	0f 84 57 ff ff ff    	je     26f8 <processor_emulate+0x38>
    27a1:	48 89 df             	mov    %rbx,%rdi
    27a4:	e8 b7 08 00 00       	call   3060 <instruction_print>
    27a9:	e9 4a ff ff ff       	jmp    26f8 <processor_emulate+0x38>
    27ae:	66 90                	xchg   %ax,%ax
    27b0:	48 89 ef             	mov    %rbp,%rdi
    27b3:	e8 58 0c 00 00       	call   3410 <processor_registers_print>
    27b8:	eb 8f                	jmp    2749 <processor_emulate+0x89>
    27ba:	66 0f 1f 44 00 00    	nopw   0x0(%rax,%rax,1)
    27c0:	8b 74 24 04          	mov    0x4(%rsp),%esi
    27c4:	48 89 ef             	mov    %rbp,%rdi
    27c7:	e8 44 0f 00 00       	call   3710 <processor_print_exception>
    27cc:	48 8b 44 24 08       	mov    0x8(%rsp),%rax
    27d1:	64 48 2b 04 25 28 00 	sub    %fs:0x28,%rax
    27d8:	00 00 
    27da:	75 0b                	jne    27e7 <processor_emulate+0x127>
    27dc:	48 83 c4 18          	add    $0x18,%rsp
    27e0:	5b                   	pop    %rbx
    27e1:	5d                   	pop    %rbp
    27e2:	41 5c                	pop    %r12
    27e4:	41 5d                	pop    %r13
    27e6:	c3                   	ret
    27e7:	e8 c4 e9 ff ff       	call   11b0 <__stack_chk_fail@plt>
    27ec:	0f 1f 40 00          	nopl   0x0(%rax)

00000000000027f0 <processor_alloc>:
    27f0:	f3 0f 1e fa          	endbr64
    27f4:	41 56                	push   %r14
    27f6:	49 89 fe             	mov    %rdi,%r14
    27f9:	bf 68 00 00 00       	mov    $0x68,%edi
    27fe:	41 55                	push   %r13
    2800:	49 89 f5             	mov    %rsi,%r13
    2803:	41 54                	push   %r12
    2805:	49 89 d4             	mov    %rdx,%r12
    2808:	55                   	push   %rbp
    2809:	48 89 cd             	mov    %rcx,%rbp
    280c:	53                   	push   %rbx
    280d:	4c 89 c3             	mov    %r8,%rbx
    2810:	e8 0b ea ff ff       	call   1220 <malloc@plt>
    2815:	48 85 c0             	test   %rax,%rax
    2818:	74 47                	je     2861 <processor_alloc+0x71>
    281a:	f3 41 0f 6f 56 10    	movdqu 0x10(%r14),%xmm2
    2820:	f3 41 0f 6f 4e 20    	movdqu 0x20(%r14),%xmm1
    2826:	4c 89 68 48          	mov    %r13,0x48(%rax)
    282a:	f3 41 0f 6f 46 30    	movdqu 0x30(%r14),%xmm0
    2830:	49 8b 56 40          	mov    0x40(%r14),%rdx
    2834:	4c 89 60 50          	mov    %r12,0x50(%rax)
    2838:	f3 41 0f 6f 1e       	movdqu (%r14),%xmm3
    283d:	48 89 68 58          	mov    %rbp,0x58(%rax)
    2841:	48 89 50 40          	mov    %rdx,0x40(%rax)
    2845:	48 89 58 60          	mov    %rbx,0x60(%rax)
    2849:	0f 11 18             	movups %xmm3,(%rax)
    284c:	0f 11 50 10          	movups %xmm2,0x10(%rax)
    2850:	0f 11 48 20          	movups %xmm1,0x20(%rax)
    2854:	0f 11 40 30          	movups %xmm0,0x30(%rax)
    2858:	5b                   	pop    %rbx
    2859:	5d                   	pop    %rbp
    285a:	41 5c                	pop    %r12
    285c:	41 5d                	pop    %r13
    285e:	41 5e                	pop    %r14
    2860:	c3                   	ret
    2861:	48 8d 0d 68 25 00 00 	lea    0x2568(%rip),%rcx        # 4dd0 <__PRETTY_FUNCTION__.0>
    2868:	ba 2f 00 00 00       	mov    $0x2f,%edx
    286d:	48 8d 35 e2 21 00 00 	lea    0x21e2(%rip),%rsi        # 4a56 <_IO_stdin_used+0xa56>
    2874:	48 8d 3d e7 21 00 00 	lea    0x21e7(%rip),%rdi        # 4a62 <_IO_stdin_used+0xa62>
    287b:	e8 50 e9 ff ff       	call   11d0 <__assert_fail@plt>

0000000000002880 <processor_free>:
    2880:	f3 0f 1e fa          	endbr64
    2884:	53                   	push   %rbx
    2885:	48 89 fb             	mov    %rdi,%rbx
    2888:	48 8b 7f 50          	mov    0x50(%rdi),%rdi
    288c:	48 85 ff             	test   %rdi,%rdi
    288f:	74 05                	je     2896 <processor_free+0x16>
    2891:	e8 6a 00 00 00       	call   2900 <registers_free>
    2896:	48 8b 7b 58          	mov    0x58(%rbx),%rdi
    289a:	48 85 ff             	test   %rdi,%rdi
    289d:	74 05                	je     28a4 <processor_free+0x24>
    289f:	e8 ec f8 ff ff       	call   2190 <memory_free>
    28a4:	48 8b 7b 48          	mov    0x48(%rbx),%rdi
    28a8:	48 85 ff             	test   %rdi,%rdi
    28ab:	74 05                	je     28b2 <processor_free+0x32>
    28ad:	e8 0e f8 ff ff       	call   20c0 <instructions_free>
    28b2:	48 89 df             	mov    %rbx,%rdi
    28b5:	5b                   	pop    %rbx
    28b6:	e9 b5 e8 ff ff       	jmp    1170 <free@plt>
    28bb:	0f 1f 44 00 00       	nopl   0x0(%rax,%rax,1)

00000000000028c0 <err>:
    28c0:	50                   	push   %rax
    28c1:	58                   	pop    %rax
    28c2:	48 83 ec 08          	sub    $0x8,%rsp
    28c6:	48 8b 35 53 47 00 00 	mov    0x4753(%rip),%rsi        # 7020 <stderr@GLIBC_2.2.5>
    28cd:	e8 0e e9 ff ff       	call   11e0 <fputs@plt>
    28d2:	bf ff ff ff ff       	mov    $0xffffffff,%edi
    28d7:	e8 74 e9 ff ff       	call   1250 <exit@plt>
    28dc:	0f 1f 40 00          	nopl   0x0(%rax)

00000000000028e0 <registers_alloc>:
    28e0:	f3 0f 1e fa          	endbr64
    28e4:	53                   	push   %rbx
    28e5:	be 01 00 00 00       	mov    $0x1,%esi
    28ea:	48 89 fb             	mov    %rdi,%rbx
    28ed:	bf 08 01 00 00       	mov    $0x108,%edi
    28f2:	e8 09 e9 ff ff       	call   1200 <calloc@plt>
    28f7:	48 89 98 00 01 00 00 	mov    %rbx,0x100(%rax)
    28fe:	5b                   	pop    %rbx
    28ff:	c3                   	ret

0000000000002900 <registers_free>:
    2900:	f3 0f 1e fa          	endbr64
    2904:	e9 67 e8 ff ff       	jmp    1170 <free@plt>
    2909:	0f 1f 80 00 00 00 00 	nopl   0x0(%rax)

0000000000002910 <registers_getreg>:
    2910:	f3 0f 1e fa          	endbr64
    2914:	89 f6                	mov    %esi,%esi
    2916:	48 8b 04 f7          	mov    (%rdi,%rsi,8),%rax
    291a:	c3                   	ret
    291b:	0f 1f 44 00 00       	nopl   0x0(%rax,%rax,1)

0000000000002920 <registers_setreg>:
    2920:	f3 0f 1e fa          	endbr64
    2924:	89 f6                	mov    %esi,%esi
    2926:	48 89 14 f7          	mov    %rdx,(%rdi,%rsi,8)
    292a:	c3                   	ret
    292b:	0f 1f 44 00 00       	nopl   0x0(%rax,%rax,1)

0000000000002930 <registers_getpc>:
    2930:	f3 0f 1e fa          	endbr64
    2934:	8b 87 00 01 00 00    	mov    0x100(%rdi),%eax
    293a:	c3                   	ret
    293b:	0f 1f 44 00 00       	nopl   0x0(%rax,%rax,1)

0000000000002940 <registers_setpc>:
    2940:	f3 0f 1e fa          	endbr64
    2944:	48 89 b7 00 01 00 00 	mov    %rsi,0x100(%rdi)
    294b:	c3                   	ret
    294c:	0f 1f 40 00          	nopl   0x0(%rax)

0000000000002950 <processor_emulate_regops>:
    2950:	f3 0f 1e fa          	endbr64
    2954:	55                   	push   %rbp
    2955:	53                   	push   %rbx
    2956:	48 83 ec 08          	sub    $0x8,%rsp
    295a:	48 8b 6f 50          	mov    0x50(%rdi),%rbp
    295e:	48 85 ed             	test   %rbp,%rbp
    2961:	0f 84 42 04 00 00    	je     2da9 <processor_emulate_regops+0x459>
    2967:	48 89 f0             	mov    %rsi,%rax
    296a:	48 85 f6             	test   %rsi,%rsi
    296d:	0f 84 66 04 00 00    	je     2dd9 <processor_emulate_regops+0x489>
    2973:	48 85 d2             	test   %rdx,%rdx
    2976:	0f 84 45 04 00 00    	je     2dc1 <processor_emulate_regops+0x471>
    297c:	48 8b 4f 48          	mov    0x48(%rdi),%rcx
    2980:	48 85 c9             	test   %rcx,%rcx
    2983:	0f 84 2c 04 00 00    	je     2db5 <processor_emulate_regops+0x465>
    2989:	48 83 79 08 00       	cmpq   $0x0,0x8(%rcx)
    298e:	0f 84 39 04 00 00    	je     2dcd <processor_emulate_regops+0x47d>
    2994:	8b 0e                	mov    (%rsi),%ecx
    2996:	8b 9d 00 01 00 00    	mov    0x100(%rbp),%ebx
    299c:	8b 76 10             	mov    0x10(%rsi),%esi
    299f:	85 c9                	test   %ecx,%ecx
    29a1:	75 3d                	jne    29e0 <processor_emulate_regops+0x90>
    29a3:	48 8b 85 88 00 00 00 	mov    0x88(%rbp),%rax
    29aa:	83 fe 04             	cmp    $0x4,%esi
    29ad:	0f 85 32 04 00 00    	jne    2de5 <processor_emulate_regops+0x495>
    29b3:	48 83 f8 02          	cmp    $0x2,%rax
    29b7:	0f 84 b3 00 00 00    	je     2a70 <processor_emulate_regops+0x120>
    29bd:	48 83 f8 17          	cmp    $0x17,%rax
    29c1:	0f 84 b9 00 00 00    	je     2a80 <processor_emulate_regops+0x130>
    29c7:	c7 02 03 00 00 00    	movl   $0x3,(%rdx)
    29cd:	ba ff ff ff ff       	mov    $0xffffffff,%edx
    29d2:	48 83 c4 08          	add    $0x8,%rsp
    29d6:	89 d0                	mov    %edx,%eax
    29d8:	5b                   	pop    %rbx
    29d9:	5d                   	pop    %rbp
    29da:	c3                   	ret
    29db:	0f 1f 44 00 00       	nopl   0x0(%rax,%rax,1)
    29e0:	85 f6                	test   %esi,%esi
    29e2:	75 1c                	jne    2a00 <processor_emulate_regops+0xb0>
    29e4:	83 f9 17             	cmp    $0x17,%ecx
    29e7:	77 77                	ja     2a60 <processor_emulate_regops+0x110>
    29e9:	48 8d 35 f0 23 00 00 	lea    0x23f0(%rip),%rsi        # 4de0 <__PRETTY_FUNCTION__.0+0x10>
    29f0:	48 63 14 8e          	movslq (%rsi,%rcx,4),%rdx
    29f4:	48 01 f2             	add    %rsi,%rdx
    29f7:	3e ff e2             	notrack jmp *%rdx
    29fa:	66 0f 1f 44 00 00    	nopw   0x0(%rax,%rax,1)
    2a00:	83 fe 01             	cmp    $0x1,%esi
    2a03:	74 3b                	je     2a40 <processor_emulate_regops+0xf0>
    2a05:	ba 01 00 00 00       	mov    $0x1,%edx
    2a0a:	83 f9 19             	cmp    $0x19,%ecx
    2a0d:	75 c3                	jne    29d2 <processor_emulate_regops+0x82>
    2a0f:	8b 50 18             	mov    0x18(%rax),%edx
    2a12:	48 8b 40 20          	mov    0x20(%rax),%rax
    2a16:	48 c1 e0 0c          	shl    $0xc,%rax
    2a1a:	48 89 44 d5 00       	mov    %rax,0x0(%rbp,%rdx,8)
    2a1f:	48 83 c3 04          	add    $0x4,%rbx
    2a23:	48 c7 45 00 00 00 00 	movq   $0x0,0x0(%rbp)
    2a2a:	00 
    2a2b:	31 d2                	xor    %edx,%edx
    2a2d:	48 89 9d 00 01 00 00 	mov    %rbx,0x100(%rbp)
    2a34:	eb 9c                	jmp    29d2 <processor_emulate_regops+0x82>
    2a36:	66 2e 0f 1f 84 00 00 	cs nopw 0x0(%rax,%rax,1)
    2a3d:	00 00 00 
    2a40:	83 e9 03             	sub    $0x3,%ecx
    2a43:	83 f9 15             	cmp    $0x15,%ecx
    2a46:	77 18                	ja     2a60 <processor_emulate_regops+0x110>
    2a48:	48 8d 35 f1 23 00 00 	lea    0x23f1(%rip),%rsi        # 4e40 <__PRETTY_FUNCTION__.0+0x70>
    2a4f:	48 63 14 8e          	movslq (%rsi,%rcx,4),%rdx
    2a53:	48 01 f2             	add    %rsi,%rdx
    2a56:	3e ff e2             	notrack jmp *%rdx
    2a59:	0f 1f 80 00 00 00 00 	nopl   0x0(%rax)
    2a60:	ba 01 00 00 00       	mov    $0x1,%edx
    2a65:	e9 68 ff ff ff       	jmp    29d2 <processor_emulate_regops+0x82>
    2a6a:	66 0f 1f 44 00 00    	nopw   0x0(%rax,%rax,1)
    2a70:	c7 02 02 00 00 00    	movl   $0x2,(%rdx)
    2a76:	e9 52 ff ff ff       	jmp    29cd <processor_emulate_regops+0x7d>
    2a7b:	0f 1f 44 00 00       	nopl   0x0(%rax,%rax,1)
    2a80:	e8 3b 0a 00 00       	call   34c0 <processor_registers_printall>
    2a85:	48 83 c3 04          	add    $0x4,%rbx
    2a89:	31 d2                	xor    %edx,%edx
    2a8b:	48 89 9d 00 01 00 00 	mov    %rbx,0x100(%rbp)
    2a92:	e9 3b ff ff ff       	jmp    29d2 <processor_emulate_regops+0x82>
    2a97:	66 0f 1f 84 00 00 00 	nopw   0x0(%rax,%rax,1)
    2a9e:	00 00 
    2aa0:	8b 48 20             	mov    0x20(%rax),%ecx
    2aa3:	8b 70 1c             	mov    0x1c(%rax),%esi
    2aa6:	8b 50 18             	mov    0x18(%rax),%edx
    2aa9:	48 8b 44 f5 00       	mov    0x0(%rbp,%rsi,8),%rax
    2aae:	48 33 44 cd 00       	xor    0x0(%rbp,%rcx,8),%rax
    2ab3:	48 89 44 d5 00       	mov    %rax,0x0(%rbp,%rdx,8)
    2ab8:	e9 62 ff ff ff       	jmp    2a1f <processor_emulate_regops+0xcf>
    2abd:	0f 1f 00             	nopl   (%rax)
    2ac0:	8b 48 20             	mov    0x20(%rax),%ecx
    2ac3:	8b 70 1c             	mov    0x1c(%rax),%esi
    2ac6:	8b 50 18             	mov    0x18(%rax),%edx
    2ac9:	48 8b 44 f5 00       	mov    0x0(%rbp,%rsi,8),%rax
    2ace:	48 23 44 cd 00       	and    0x0(%rbp,%rcx,8),%rax
    2ad3:	48 89 44 d5 00       	mov    %rax,0x0(%rbp,%rdx,8)
    2ad8:	e9 42 ff ff ff       	jmp    2a1f <processor_emulate_regops+0xcf>
    2add:	0f 1f 00             	nopl   (%rax)
    2ae0:	8b 48 20             	mov    0x20(%rax),%ecx
    2ae3:	8b 70 1c             	mov    0x1c(%rax),%esi
    2ae6:	8b 50 18             	mov    0x18(%rax),%edx
    2ae9:	48 8b 44 f5 00       	mov    0x0(%rbp,%rsi,8),%rax
    2aee:	48 0b 44 cd 00       	or     0x0(%rbp,%rcx,8),%rax
    2af3:	48 89 44 d5 00       	mov    %rax,0x0(%rbp,%rdx,8)
    2af8:	e9 22 ff ff ff       	jmp    2a1f <processor_emulate_regops+0xcf>
    2afd:	0f 1f 00             	nopl   (%rax)
    2b00:	8b 50 1c             	mov    0x1c(%rax),%edx
    2b03:	8b 70 18             	mov    0x18(%rax),%esi
    2b06:	8b 40 20             	mov    0x20(%rax),%eax
    2b09:	48 8b 54 d5 00       	mov    0x0(%rbp,%rdx,8),%rdx
    2b0e:	48 8b 4c c5 00       	mov    0x0(%rbp,%rax,8),%rcx
    2b13:	d3 fa                	sar    %cl,%edx
    2b15:	48 63 d2             	movslq %edx,%rdx
    2b18:	48 89 54 f5 00       	mov    %rdx,0x0(%rbp,%rsi,8)
    2b1d:	e9 fd fe ff ff       	jmp    2a1f <processor_emulate_regops+0xcf>
    2b22:	66 0f 1f 44 00 00    	nopw   0x0(%rax,%rax,1)
    2b28:	8b 70 1c             	mov    0x1c(%rax),%esi
    2b2b:	8b 50 18             	mov    0x18(%rax),%edx
    2b2e:	8b 40 20             	mov    0x20(%rax),%eax
    2b31:	48 8b 4c c5 00       	mov    0x0(%rbp,%rax,8),%rcx
    2b36:	48 8b 44 f5 00       	mov    0x0(%rbp,%rsi,8),%rax
    2b3b:	48 d3 f8             	sar    %cl,%rax
    2b3e:	48 89 44 d5 00       	mov    %rax,0x0(%rbp,%rdx,8)
    2b43:	e9 d7 fe ff ff       	jmp    2a1f <processor_emulate_regops+0xcf>
    2b48:	0f 1f 84 00 00 00 00 	nopl   0x0(%rax,%rax,1)
    2b4f:	00 
    2b50:	8b 50 1c             	mov    0x1c(%rax),%edx
    2b53:	8b 70 18             	mov    0x18(%rax),%esi
    2b56:	8b 40 20             	mov    0x20(%rax),%eax
    2b59:	48 8b 54 d5 00       	mov    0x0(%rbp,%rdx,8),%rdx
    2b5e:	48 8b 4c c5 00       	mov    0x0(%rbp,%rax,8),%rcx
    2b63:	d3 ea                	shr    %cl,%edx
    2b65:	48 63 d2             	movslq %edx,%rdx
    2b68:	48 89 54 f5 00       	mov    %rdx,0x0(%rbp,%rsi,8)
    2b6d:	e9 ad fe ff ff       	jmp    2a1f <processor_emulate_regops+0xcf>
    2b72:	66 0f 1f 44 00 00    	nopw   0x0(%rax,%rax,1)
    2b78:	8b 70 1c             	mov    0x1c(%rax),%esi
    2b7b:	8b 50 18             	mov    0x18(%rax),%edx
    2b7e:	8b 40 20             	mov    0x20(%rax),%eax
    2b81:	48 8b 4c c5 00       	mov    0x0(%rbp,%rax,8),%rcx
    2b86:	48 8b 44 f5 00       	mov    0x0(%rbp,%rsi,8),%rax
    2b8b:	48 d3 e8             	shr    %cl,%rax
    2b8e:	48 89 44 d5 00       	mov    %rax,0x0(%rbp,%rdx,8)
    2b93:	e9 87 fe ff ff       	jmp    2a1f <processor_emulate_regops+0xcf>
    2b98:	0f 1f 84 00 00 00 00 	nopl   0x0(%rax,%rax,1)
    2b9f:	00 
    2ba0:	8b 50 1c             	mov    0x1c(%rax),%edx
    2ba3:	8b 70 18             	mov    0x18(%rax),%esi
    2ba6:	8b 40 20             	mov    0x20(%rax),%eax
    2ba9:	48 8b 54 d5 00       	mov    0x0(%rbp,%rdx,8),%rdx
    2bae:	48 8b 4c c5 00       	mov    0x0(%rbp,%rax,8),%rcx
    2bb3:	d3 e2                	shl    %cl,%edx
    2bb5:	48 63 d2             	movslq %edx,%rdx
    2bb8:	48 89 54 f5 00       	mov    %rdx,0x0(%rbp,%rsi,8)
    2bbd:	e9 5d fe ff ff       	jmp    2a1f <processor_emulate_regops+0xcf>
    2bc2:	66 0f 1f 44 00 00    	nopw   0x0(%rax,%rax,1)
    2bc8:	8b 70 1c             	mov    0x1c(%rax),%esi
    2bcb:	8b 50 18             	mov    0x18(%rax),%edx
    2bce:	8b 40 20             	mov    0x20(%rax),%eax
    2bd1:	48 8b 4c c5 00       	mov    0x0(%rbp,%rax,8),%rcx
    2bd6:	48 8b 44 f5 00       	mov    0x0(%rbp,%rsi,8),%rax
    2bdb:	48 d3 e0             	shl    %cl,%rax
    2bde:	48 89 44 d5 00       	mov    %rax,0x0(%rbp,%rdx,8)
    2be3:	e9 37 fe ff ff       	jmp    2a1f <processor_emulate_regops+0xcf>
    2be8:	0f 1f 84 00 00 00 00 	nopl   0x0(%rax,%rax,1)
    2bef:	00 
    2bf0:	8b 50 1c             	mov    0x1c(%rax),%edx
    2bf3:	8b 48 18             	mov    0x18(%rax),%ecx
    2bf6:	8b 40 20             	mov    0x20(%rax),%eax
    2bf9:	48 8b 54 d5 00       	mov    0x0(%rbp,%rdx,8),%rdx
    2bfe:	89 d7                	mov    %edx,%edi
    2c00:	2b 7c c5 00          	sub    0x0(%rbp,%rax,8),%edi
    2c04:	48 63 c7             	movslq %edi,%rax
    2c07:	48 89 44 cd 00       	mov    %rax,0x0(%rbp,%rcx,8)
    2c0c:	e9 0e fe ff ff       	jmp    2a1f <processor_emulate_regops+0xcf>
    2c11:	0f 1f 80 00 00 00 00 	nopl   0x0(%rax)
    2c18:	8b 48 20             	mov    0x20(%rax),%ecx
    2c1b:	8b 70 1c             	mov    0x1c(%rax),%esi
    2c1e:	8b 50 18             	mov    0x18(%rax),%edx
    2c21:	48 8b 44 f5 00       	mov    0x0(%rbp,%rsi,8),%rax
    2c26:	48 2b 44 cd 00       	sub    0x0(%rbp,%rcx,8),%rax
    2c2b:	48 89 44 d5 00       	mov    %rax,0x0(%rbp,%rdx,8)
    2c30:	e9 ea fd ff ff       	jmp    2a1f <processor_emulate_regops+0xcf>
    2c35:	0f 1f 00             	nopl   (%rax)
    2c38:	8b 48 1c             	mov    0x1c(%rax),%ecx
    2c3b:	8b 50 18             	mov    0x18(%rax),%edx
    2c3e:	8b 40 20             	mov    0x20(%rax),%eax
    2c41:	48 8b 44 c5 00       	mov    0x0(%rbp,%rax,8),%rax
    2c46:	03 44 cd 00          	add    0x0(%rbp,%rcx,8),%eax
    2c4a:	48 98                	cltq
    2c4c:	48 89 44 d5 00       	mov    %rax,0x0(%rbp,%rdx,8)
    2c51:	e9 c9 fd ff ff       	jmp    2a1f <processor_emulate_regops+0xcf>
    2c56:	66 2e 0f 1f 84 00 00 	cs nopw 0x0(%rax,%rax,1)
    2c5d:	00 00 00 
    2c60:	8b 48 1c             	mov    0x1c(%rax),%ecx
    2c63:	8b 50 18             	mov    0x18(%rax),%edx
    2c66:	8b 40 20             	mov    0x20(%rax),%eax
    2c69:	48 8b 44 c5 00       	mov    0x0(%rbp,%rax,8),%rax
    2c6e:	48 03 44 cd 00       	add    0x0(%rbp,%rcx,8),%rax
    2c73:	48 89 44 d5 00       	mov    %rax,0x0(%rbp,%rdx,8)
    2c78:	e9 a2 fd ff ff       	jmp    2a1f <processor_emulate_regops+0xcf>
    2c7d:	8b 50 1c             	mov    0x1c(%rax),%edx
    2c80:	8b 48 18             	mov    0x18(%rax),%ecx
    2c83:	48 8b 54 d5 00       	mov    0x0(%rbp,%rdx,8),%rdx
    2c88:	48 33 50 20          	xor    0x20(%rax),%rdx
    2c8c:	48 89 54 cd 00       	mov    %rdx,0x0(%rbp,%rcx,8)
    2c91:	e9 89 fd ff ff       	jmp    2a1f <processor_emulate_regops+0xcf>
    2c96:	8b 50 1c             	mov    0x1c(%rax),%edx
    2c99:	8b 48 18             	mov    0x18(%rax),%ecx
    2c9c:	48 8b 54 d5 00       	mov    0x0(%rbp,%rdx,8),%rdx
    2ca1:	48 23 50 20          	and    0x20(%rax),%rdx
    2ca5:	48 89 54 cd 00       	mov    %rdx,0x0(%rbp,%rcx,8)
    2caa:	e9 70 fd ff ff       	jmp    2a1f <processor_emulate_regops+0xcf>
    2caf:	8b 50 1c             	mov    0x1c(%rax),%edx
    2cb2:	8b 48 18             	mov    0x18(%rax),%ecx
    2cb5:	48 8b 54 d5 00       	mov    0x0(%rbp,%rdx,8),%rdx
    2cba:	48 0b 50 20          	or     0x20(%rax),%rdx
    2cbe:	48 89 54 cd 00       	mov    %rdx,0x0(%rbp,%rcx,8)
    2cc3:	e9 57 fd ff ff       	jmp    2a1f <processor_emulate_regops+0xcf>
    2cc8:	8b 50 1c             	mov    0x1c(%rax),%edx
    2ccb:	48 8b 48 20          	mov    0x20(%rax),%rcx
    2ccf:	8b 70 18             	mov    0x18(%rax),%esi
    2cd2:	48 8b 54 d5 00       	mov    0x0(%rbp,%rdx,8),%rdx
    2cd7:	d3 fa                	sar    %cl,%edx
    2cd9:	48 63 c2             	movslq %edx,%rax
    2cdc:	48 89 44 f5 00       	mov    %rax,0x0(%rbp,%rsi,8)
    2ce1:	e9 39 fd ff ff       	jmp    2a1f <processor_emulate_regops+0xcf>
    2ce6:	8b 70 1c             	mov    0x1c(%rax),%esi
    2ce9:	48 8b 48 20          	mov    0x20(%rax),%rcx
    2ced:	8b 50 18             	mov    0x18(%rax),%edx
    2cf0:	48 8b 44 f5 00       	mov    0x0(%rbp,%rsi,8),%rax
    2cf5:	48 d3 f8             	sar    %cl,%rax
    2cf8:	48 89 44 d5 00       	mov    %rax,0x0(%rbp,%rdx,8)
    2cfd:	e9 1d fd ff ff       	jmp    2a1f <processor_emulate_regops+0xcf>
    2d02:	8b 50 1c             	mov    0x1c(%rax),%edx
    2d05:	48 8b 48 20          	mov    0x20(%rax),%rcx
    2d09:	8b 70 18             	mov    0x18(%rax),%esi
    2d0c:	48 8b 54 d5 00       	mov    0x0(%rbp,%rdx,8),%rdx
    2d11:	d3 ea                	shr    %cl,%edx
    2d13:	48 63 c2             	movslq %edx,%rax
    2d16:	48 89 44 f5 00       	mov    %rax,0x0(%rbp,%rsi,8)
    2d1b:	e9 ff fc ff ff       	jmp    2a1f <processor_emulate_regops+0xcf>
    2d20:	8b 70 1c             	mov    0x1c(%rax),%esi
    2d23:	48 8b 48 20          	mov    0x20(%rax),%rcx
    2d27:	8b 50 18             	mov    0x18(%rax),%edx
    2d2a:	48 8b 44 f5 00       	mov    0x0(%rbp,%rsi,8),%rax
    2d2f:	48 d3 e8             	shr    %cl,%rax
    2d32:	48 89 44 d5 00       	mov    %rax,0x0(%rbp,%rdx,8)
    2d37:	e9 e3 fc ff ff       	jmp    2a1f <processor_emulate_regops+0xcf>
    2d3c:	8b 50 1c             	mov    0x1c(%rax),%edx
    2d3f:	48 8b 48 20          	mov    0x20(%rax),%rcx
    2d43:	8b 70 18             	mov    0x18(%rax),%esi
    2d46:	48 8b 54 d5 00       	mov    0x0(%rbp,%rdx,8),%rdx
    2d4b:	d3 e2                	shl    %cl,%edx
    2d4d:	48 63 c2             	movslq %edx,%rax
    2d50:	48 89 44 f5 00       	mov    %rax,0x0(%rbp,%rsi,8)
    2d55:	e9 c5 fc ff ff       	jmp    2a1f <processor_emulate_regops+0xcf>
    2d5a:	8b 70 1c             	mov    0x1c(%rax),%esi
    2d5d:	48 8b 48 20          	mov    0x20(%rax),%rcx
    2d61:	8b 50 18             	mov    0x18(%rax),%edx
    2d64:	48 8b 44 f5 00       	mov    0x0(%rbp,%rsi,8),%rax
    2d69:	48 d3 e0             	shl    %cl,%rax
    2d6c:	48 89 44 d5 00       	mov    %rax,0x0(%rbp,%rdx,8)
    2d71:	e9 a9 fc ff ff       	jmp    2a1f <processor_emulate_regops+0xcf>
    2d76:	8b 48 1c             	mov    0x1c(%rax),%ecx
    2d79:	8b 50 18             	mov    0x18(%rax),%edx
    2d7c:	48 8b 40 20          	mov    0x20(%rax),%rax
    2d80:	03 44 cd 00          	add    0x0(%rbp,%rcx,8),%eax
    2d84:	48 98                	cltq
    2d86:	48 89 44 d5 00       	mov    %rax,0x0(%rbp,%rdx,8)
    2d8b:	e9 8f fc ff ff       	jmp    2a1f <processor_emulate_regops+0xcf>
    2d90:	8b 48 1c             	mov    0x1c(%rax),%ecx
    2d93:	8b 50 18             	mov    0x18(%rax),%edx
    2d96:	48 8b 40 20          	mov    0x20(%rax),%rax
    2d9a:	48 03 44 cd 00       	add    0x0(%rbp,%rcx,8),%rax
    2d9f:	48 89 44 d5 00       	mov    %rax,0x0(%rbp,%rdx,8)
    2da4:	e9 76 fc ff ff       	jmp    2a1f <processor_emulate_regops+0xcf>
    2da9:	48 8d 3d f0 18 00 00 	lea    0x18f0(%rip),%rdi        # 46a0 <_IO_stdin_used+0x6a0>
    2db0:	e8 0b fb ff ff       	call   28c0 <err>
    2db5:	48 8d 3d d4 19 00 00 	lea    0x19d4(%rip),%rdi        # 4790 <_IO_stdin_used+0x790>
    2dbc:	e8 ff fa ff ff       	call   28c0 <err>
    2dc1:	48 8d 3d 80 19 00 00 	lea    0x1980(%rip),%rdi        # 4748 <_IO_stdin_used+0x748>
    2dc8:	e8 f3 fa ff ff       	call   28c0 <err>
    2dcd:	48 8d 3d 14 1a 00 00 	lea    0x1a14(%rip),%rdi        # 47e8 <_IO_stdin_used+0x7e8>
    2dd4:	e8 e7 fa ff ff       	call   28c0 <err>
    2dd9:	48 8d 3d 18 19 00 00 	lea    0x1918(%rip),%rdi        # 46f8 <_IO_stdin_used+0x6f8>
    2de0:	e8 db fa ff ff       	call   28c0 <err>
    2de5:	48 8d 0d b4 20 00 00 	lea    0x20b4(%rip),%rcx        # 4ea0 <__PRETTY_FUNCTION__.0>
    2dec:	ba 50 00 00 00       	mov    $0x50,%edx
    2df1:	48 8d 35 6c 1c 00 00 	lea    0x1c6c(%rip),%rsi        # 4a64 <_IO_stdin_used+0xa64>
    2df8:	48 8d 3d 71 1c 00 00 	lea    0x1c71(%rip),%rdi        # 4a70 <_IO_stdin_used+0xa70>
    2dff:	e8 cc e3 ff ff       	call   11d0 <__assert_fail@plt>
    2e04:	66 2e 0f 1f 84 00 00 	cs nopw 0x0(%rax,%rax,1)
    2e0b:	00 00 00 
    2e0e:	66 90                	xchg   %ax,%ax

0000000000002e10 <lines>:
    2e10:	f3 0f 1e fa          	endbr64
    2e14:	41 57                	push   %r15
    2e16:	41 56                	push   %r14
    2e18:	41 55                	push   %r13
    2e1a:	45 31 ed             	xor    %r13d,%r13d
    2e1d:	41 54                	push   %r12
    2e1f:	49 89 f4             	mov    %rsi,%r12
    2e22:	55                   	push   %rbp
    2e23:	53                   	push   %rbx
    2e24:	48 83 ec 28          	sub    $0x28,%rsp
    2e28:	64 48 8b 04 25 28 00 	mov    %fs:0x28,%rax
    2e2f:	00 00 
    2e31:	48 89 44 24 18       	mov    %rax,0x18(%rsp)
    2e36:	31 c0                	xor    %eax,%eax
    2e38:	e8 43 e4 ff ff       	call   1280 <strdup@plt>
    2e3d:	48 c7 44 24 10 00 00 	movq   $0x0,0x10(%rsp)
    2e44:	00 00 
    2e46:	48 89 c5             	mov    %rax,%rbp
    2e49:	48 89 c3             	mov    %rax,%rbx
    2e4c:	eb 09                	jmp    2e57 <lines+0x47>
    2e4e:	66 90                	xchg   %ax,%ax
    2e50:	48 8d 58 01          	lea    0x1(%rax),%rbx
    2e54:	41 89 d5             	mov    %edx,%r13d
    2e57:	be 0a 00 00 00       	mov    $0xa,%esi
    2e5c:	48 89 df             	mov    %rbx,%rdi
    2e5f:	e8 5c e3 ff ff       	call   11c0 <strchr@plt>
    2e64:	41 8d 55 01          	lea    0x1(%r13),%edx
    2e68:	48 85 c0             	test   %rax,%rax
    2e6b:	75 e3                	jne    2e50 <lines+0x40>
    2e6d:	80 3b 00             	cmpb   $0x0,(%rbx)
    2e70:	41 0f 44 d5          	cmove  %r13d,%edx
    2e74:	44 8d 6a 01          	lea    0x1(%rdx),%r13d
    2e78:	89 54 24 0c          	mov    %edx,0xc(%rsp)
    2e7c:	4d 63 ed             	movslq %r13d,%r13
    2e7f:	49 c1 e5 03          	shl    $0x3,%r13
    2e83:	4c 89 ef             	mov    %r13,%rdi
    2e86:	e8 95 e3 ff ff       	call   1220 <malloc@plt>
    2e8b:	8b 54 24 0c          	mov    0xc(%rsp),%edx
    2e8f:	48 85 c0             	test   %rax,%rax
    2e92:	48 89 c3             	mov    %rax,%rbx
    2e95:	0f 84 91 00 00 00    	je     2f2c <lines+0x11c>
    2e9b:	4a c7 44 28 f8 00 00 	movq   $0x0,-0x8(%rax,%r13,1)
    2ea2:	00 00 
    2ea4:	4c 63 fa             	movslq %edx,%r15
    2ea7:	4d 85 e4             	test   %r12,%r12
    2eaa:	74 04                	je     2eb0 <lines+0xa0>
    2eac:	41 89 14 24          	mov    %edx,(%r12)
    2eb0:	45 31 ed             	xor    %r13d,%r13d
    2eb3:	4c 8d 74 24 10       	lea    0x10(%rsp),%r14
    2eb8:	45 31 e4             	xor    %r12d,%r12d
    2ebb:	85 d2                	test   %edx,%edx
    2ebd:	74 2c                	je     2eeb <lines+0xdb>
    2ebf:	90                   	nop
    2ec0:	4d 85 ed             	test   %r13,%r13
    2ec3:	4c 89 e7             	mov    %r12,%rdi
    2ec6:	48 8d 35 f3 1f 00 00 	lea    0x1ff3(%rip),%rsi        # 4ec0 <__PRETTY_FUNCTION__.0+0x20>
    2ecd:	4c 89 f2             	mov    %r14,%rdx
    2ed0:	48 0f 44 fd          	cmove  %rbp,%rdi
    2ed4:	e8 17 e3 ff ff       	call   11f0 <strtok_r@plt>
    2ed9:	4a 89 04 eb          	mov    %rax,(%rbx,%r13,8)
    2edd:	48 85 c0             	test   %rax,%rax
    2ee0:	74 2b                	je     2f0d <lines+0xfd>
    2ee2:	49 83 c5 01          	add    $0x1,%r13
    2ee6:	4d 39 ef             	cmp    %r13,%r15
    2ee9:	75 d5                	jne    2ec0 <lines+0xb0>
    2eeb:	48 8b 44 24 18       	mov    0x18(%rsp),%rax
    2ef0:	64 48 2b 04 25 28 00 	sub    %fs:0x28,%rax
    2ef7:	00 00 
    2ef9:	75 50                	jne    2f4b <lines+0x13b>
    2efb:	48 83 c4 28          	add    $0x28,%rsp
    2eff:	48 89 d8             	mov    %rbx,%rax
    2f02:	5b                   	pop    %rbx
    2f03:	5d                   	pop    %rbp
    2f04:	41 5c                	pop    %r12
    2f06:	41 5d                	pop    %r13
    2f08:	41 5e                	pop    %r14
    2f0a:	41 5f                	pop    %r15
    2f0c:	c3                   	ret
    2f0d:	48 8d 0d 1e 20 00 00 	lea    0x201e(%rip),%rcx        # 4f32 <__PRETTY_FUNCTION__.3>
    2f14:	ba 40 00 00 00       	mov    $0x40,%edx
    2f19:	48 8d 35 6c 1b 00 00 	lea    0x1b6c(%rip),%rsi        # 4a8c <_IO_stdin_used+0xa8c>
    2f20:	48 8d 3d 71 1b 00 00 	lea    0x1b71(%rip),%rdi        # 4a98 <_IO_stdin_used+0xa98>
    2f27:	e8 a4 e2 ff ff       	call   11d0 <__assert_fail@plt>
    2f2c:	48 8d 0d ff 1f 00 00 	lea    0x1fff(%rip),%rcx        # 4f32 <__PRETTY_FUNCTION__.3>
    2f33:	ba 37 00 00 00       	mov    $0x37,%edx
    2f38:	48 8d 35 4d 1b 00 00 	lea    0x1b4d(%rip),%rsi        # 4a8c <_IO_stdin_used+0xa8c>
    2f3f:	48 8d 3d ba 19 00 00 	lea    0x19ba(%rip),%rdi        # 4900 <_IO_stdin_used+0x900>
    2f46:	e8 85 e2 ff ff       	call   11d0 <__assert_fail@plt>
    2f4b:	e8 60 e2 ff ff       	call   11b0 <__stack_chk_fail@plt>

0000000000002f50 <free_lines>:
    2f50:	f3 0f 1e fa          	endbr64
    2f54:	53                   	push   %rbx
    2f55:	48 89 fb             	mov    %rdi,%rbx
    2f58:	48 8b 3f             	mov    (%rdi),%rdi
    2f5b:	48 85 ff             	test   %rdi,%rdi
    2f5e:	74 05                	je     2f65 <free_lines+0x15>
    2f60:	e8 0b e2 ff ff       	call   1170 <free@plt>
    2f65:	48 89 df             	mov    %rbx,%rdi
    2f68:	5b                   	pop    %rbx
    2f69:	e9 02 e2 ff ff       	jmp    1170 <free@plt>
    2f6e:	66 90                	xchg   %ax,%ax

0000000000002f70 <instr_format>:
    2f70:	f3 0f 1e fa          	endbr64
    2f74:	48 8d 0d 85 3a 00 00 	lea    0x3a85(%rip),%rcx        # 6a00 <imeta>
    2f7b:	31 c0                	xor    %eax,%eax
    2f7d:	48 89 ca             	mov    %rcx,%rdx
    2f80:	eb 12                	jmp    2f94 <instr_format+0x24>
    2f82:	66 0f 1f 44 00 00    	nopw   0x0(%rax,%rax,1)
    2f88:	83 c0 01             	add    $0x1,%eax
    2f8b:	48 83 c2 10          	add    $0x10,%rdx
    2f8f:	83 f8 32             	cmp    $0x32,%eax
    2f92:	74 14                	je     2fa8 <instr_format+0x38>
    2f94:	39 3a                	cmp    %edi,(%rdx)
    2f96:	75 f0                	jne    2f88 <instr_format+0x18>
    2f98:	48 98                	cltq
    2f9a:	48 c1 e0 04          	shl    $0x4,%rax
    2f9e:	8b 44 01 04          	mov    0x4(%rcx,%rax,1),%eax
    2fa2:	c3                   	ret
    2fa3:	0f 1f 44 00 00       	nopl   0x0(%rax,%rax,1)
    2fa8:	b8 05 00 00 00       	mov    $0x5,%eax
    2fad:	c3                   	ret
    2fae:	66 90                	xchg   %ax,%ax

0000000000002fb0 <instr_name>:
    2fb0:	f3 0f 1e fa          	endbr64
    2fb4:	48 8d 0d 45 3a 00 00 	lea    0x3a45(%rip),%rcx        # 6a00 <imeta>
    2fbb:	31 c0                	xor    %eax,%eax
    2fbd:	48 89 ca             	mov    %rcx,%rdx
    2fc0:	eb 12                	jmp    2fd4 <instr_name+0x24>
    2fc2:	66 0f 1f 44 00 00    	nopw   0x0(%rax,%rax,1)
    2fc8:	83 c0 01             	add    $0x1,%eax
    2fcb:	48 83 c2 10          	add    $0x10,%rdx
    2fcf:	83 f8 32             	cmp    $0x32,%eax
    2fd2:	74 14                	je     2fe8 <instr_name+0x38>
    2fd4:	39 3a                	cmp    %edi,(%rdx)
    2fd6:	75 f0                	jne    2fc8 <instr_name+0x18>
    2fd8:	48 98                	cltq
    2fda:	48 c1 e0 04          	shl    $0x4,%rax
    2fde:	48 8b 44 01 08       	mov    0x8(%rcx,%rax,1),%rax
    2fe3:	c3                   	ret
    2fe4:	0f 1f 40 00          	nopl   0x0(%rax)
    2fe8:	31 c0                	xor    %eax,%eax
    2fea:	c3                   	ret
    2feb:	0f 1f 44 00 00       	nopl   0x0(%rax,%rax,1)

0000000000002ff0 <instr_num>:
    2ff0:	f3 0f 1e fa          	endbr64
    2ff4:	41 54                	push   %r12
    2ff6:	49 89 fc             	mov    %rdi,%r12
    2ff9:	55                   	push   %rbp
    2ffa:	48 8d 2d 07 3a 00 00 	lea    0x3a07(%rip),%rbp        # 6a08 <imeta+0x8>
    3001:	53                   	push   %rbx
    3002:	31 db                	xor    %ebx,%ebx
    3004:	eb 16                	jmp    301c <instr_num+0x2c>
    3006:	66 2e 0f 1f 84 00 00 	cs nopw 0x0(%rax,%rax,1)
    300d:	00 00 00 
    3010:	83 c3 01             	add    $0x1,%ebx
    3013:	48 83 c5 10          	add    $0x10,%rbp
    3017:	83 fb 32             	cmp    $0x32,%ebx
    301a:	74 2c                	je     3048 <instr_num+0x58>
    301c:	48 8b 75 00          	mov    0x0(%rbp),%rsi
    3020:	4c 89 e7             	mov    %r12,%rdi
    3023:	e8 e8 e1 ff ff       	call   1210 <strcmp@plt>
    3028:	85 c0                	test   %eax,%eax
    302a:	75 e4                	jne    3010 <instr_num+0x20>
    302c:	48 63 db             	movslq %ebx,%rbx
    302f:	48 8d 05 ca 39 00 00 	lea    0x39ca(%rip),%rax        # 6a00 <imeta>
    3036:	48 c1 e3 04          	shl    $0x4,%rbx
    303a:	8b 04 18             	mov    (%rax,%rbx,1),%eax
    303d:	5b                   	pop    %rbx
    303e:	5d                   	pop    %rbp
    303f:	41 5c                	pop    %r12
    3041:	c3                   	ret
    3042:	66 0f 1f 44 00 00    	nopw   0x0(%rax,%rax,1)
    3048:	5b                   	pop    %rbx
    3049:	b8 33 00 00 00       	mov    $0x33,%eax
    304e:	5d                   	pop    %rbp
    304f:	41 5c                	pop    %r12
    3051:	c3                   	ret
    3052:	66 66 2e 0f 1f 84 00 	data16 cs nopw 0x0(%rax,%rax,1)
    3059:	00 00 00 00 
    305d:	0f 1f 00             	nopl   (%rax)

0000000000003060 <instruction_print>:
    3060:	f3 0f 1e fa          	endbr64
    3064:	8b 0f                	mov    (%rdi),%ecx
    3066:	48 89 fe             	mov    %rdi,%rsi
    3069:	48 8d 3d 90 39 00 00 	lea    0x3990(%rip),%rdi        # 6a00 <imeta>
    3070:	31 c0                	xor    %eax,%eax
    3072:	48 89 fa             	mov    %rdi,%rdx
    3075:	eb 15                	jmp    308c <instruction_print+0x2c>
    3077:	66 0f 1f 84 00 00 00 	nopw   0x0(%rax,%rax,1)
    307e:	00 00 
    3080:	83 c0 01             	add    $0x1,%eax
    3083:	48 83 c2 10          	add    $0x10,%rdx
    3087:	83 f8 32             	cmp    $0x32,%eax
    308a:	74 34                	je     30c0 <instruction_print+0x60>
    308c:	3b 0a                	cmp    (%rdx),%ecx
    308e:	75 f0                	jne    3080 <instruction_print+0x20>
    3090:	48 98                	cltq
    3092:	48 c1 e0 04          	shl    $0x4,%rax
    3096:	48 8b 4c 07 08       	mov    0x8(%rdi,%rax,1),%rcx
    309b:	83 7e 10 05          	cmpl   $0x5,0x10(%rsi)
    309f:	0f 87 26 01 00 00    	ja     31cb <instruction_print+0x16b>
    30a5:	48 83 ec 08          	sub    $0x8,%rsp
    30a9:	8b 46 10             	mov    0x10(%rsi),%eax
    30ac:	48 8d 15 11 1e 00 00 	lea    0x1e11(%rip),%rdx        # 4ec4 <__PRETTY_FUNCTION__.0+0x24>
    30b3:	48 63 04 82          	movslq (%rdx,%rax,4),%rax
    30b7:	48 01 d0             	add    %rdx,%rax
    30ba:	3e ff e0             	notrack jmp *%rax
    30bd:	0f 1f 00             	nopl   (%rax)
    30c0:	31 c9                	xor    %ecx,%ecx
    30c2:	eb d7                	jmp    309b <instruction_print+0x3b>
    30c4:	0f 1f 40 00          	nopl   0x0(%rax)
    30c8:	48 8b 56 08          	mov    0x8(%rsi),%rdx
    30cc:	bf 02 00 00 00       	mov    $0x2,%edi
    30d1:	31 c0                	xor    %eax,%eax
    30d3:	48 83 c4 08          	add    $0x8,%rsp
    30d7:	48 8d 35 1d 1a 00 00 	lea    0x1a1d(%rip),%rsi        # 4afb <_IO_stdin_used+0xafb>
    30de:	e9 5d e1 ff ff       	jmp    1240 <__printf_chk@plt>
    30e3:	0f 1f 44 00 00       	nopl   0x0(%rax,%rax,1)
    30e8:	8b 46 20             	mov    0x20(%rsi),%eax
    30eb:	48 83 ec 08          	sub    $0x8,%rsp
    30ef:	48 8b 56 08          	mov    0x8(%rsi),%rdx
    30f3:	bf 02 00 00 00       	mov    $0x2,%edi
    30f8:	50                   	push   %rax
    30f9:	44 8b 46 18          	mov    0x18(%rsi),%r8d
    30fd:	31 c0                	xor    %eax,%eax
    30ff:	44 8b 4e 1c          	mov    0x1c(%rsi),%r9d
    3103:	48 8d 35 9c 19 00 00 	lea    0x199c(%rip),%rsi        # 4aa6 <_IO_stdin_used+0xaa6>
    310a:	e8 31 e1 ff ff       	call   1240 <__printf_chk@plt>
    310f:	5f                   	pop    %rdi
    3110:	41 58                	pop    %r8
    3112:	48 83 c4 08          	add    $0x8,%rsp
    3116:	c3                   	ret
    3117:	66 0f 1f 84 00 00 00 	nopw   0x0(%rax,%rax,1)
    311e:	00 00 
    3120:	48 83 ec 08          	sub    $0x8,%rsp
    3124:	48 8b 56 08          	mov    0x8(%rsi),%rdx
    3128:	ff 76 20             	push   0x20(%rsi)
    312b:	bf 02 00 00 00       	mov    $0x2,%edi
    3130:	44 8b 4e 1c          	mov    0x1c(%rsi),%r9d
    3134:	31 c0                	xor    %eax,%eax
    3136:	44 8b 46 18          	mov    0x18(%rsi),%r8d
    313a:	48 8d 35 7b 19 00 00 	lea    0x197b(%rip),%rsi        # 4abc <_IO_stdin_used+0xabc>
    3141:	e8 fa e0 ff ff       	call   1240 <__printf_chk@plt>
    3146:	59                   	pop    %rcx
    3147:	5e                   	pop    %rsi
    3148:	48 83 c4 08          	add    $0x8,%rsp
    314c:	c3                   	ret
    314d:	0f 1f 00             	nopl   (%rax)
    3150:	48 8b 56 08          	mov    0x8(%rsi),%rdx
    3154:	4c 8b 4e 20          	mov    0x20(%rsi),%r9
    3158:	bf 02 00 00 00       	mov    $0x2,%edi
    315d:	31 c0                	xor    %eax,%eax
    315f:	44 8b 46 18          	mov    0x18(%rsi),%r8d
    3163:	48 8d 35 7f 19 00 00 	lea    0x197f(%rip),%rsi        # 4ae9 <_IO_stdin_used+0xae9>
    316a:	48 83 c4 08          	add    $0x8,%rsp
    316e:	e9 cd e0 ff ff       	jmp    1240 <__printf_chk@plt>
    3173:	0f 1f 44 00 00       	nopl   0x0(%rax,%rax,1)
    3178:	8b 46 1c             	mov    0x1c(%rsi),%eax
    317b:	48 83 ec 08          	sub    $0x8,%rsp
    317f:	48 8b 56 08          	mov    0x8(%rsi),%rdx
    3183:	bf 02 00 00 00       	mov    $0x2,%edi
    3188:	50                   	push   %rax
    3189:	4c 8b 4e 20          	mov    0x20(%rsi),%r9
    318d:	31 c0                	xor    %eax,%eax
    318f:	44 8b 46 18          	mov    0x18(%rsi),%r8d
    3193:	48 8d 35 38 19 00 00 	lea    0x1938(%rip),%rsi        # 4ad2 <_IO_stdin_used+0xad2>
    319a:	e8 a1 e0 ff ff       	call   1240 <__printf_chk@plt>
    319f:	58                   	pop    %rax
    31a0:	5a                   	pop    %rdx
    31a1:	48 83 c4 08          	add    $0x8,%rsp
    31a5:	c3                   	ret
    31a6:	48 8b 0d 73 3e 00 00 	mov    0x3e73(%rip),%rcx        # 7020 <stderr@GLIBC_2.2.5>
    31ad:	ba 2a 00 00 00       	mov    $0x2a,%edx
    31b2:	be 01 00 00 00       	mov    $0x1,%esi
    31b7:	48 8d 3d 92 16 00 00 	lea    0x1692(%rip),%rdi        # 4850 <_IO_stdin_used+0x850>
    31be:	e8 9d e0 ff ff       	call   1260 <fwrite@plt>
    31c3:	83 cf ff             	or     $0xffffffff,%edi
    31c6:	e8 85 e0 ff ff       	call   1250 <exit@plt>
    31cb:	c3                   	ret
    31cc:	0f 1f 40 00          	nopl   0x0(%rax)

00000000000031d0 <stringify_program>:
    31d0:	f3 0f 1e fa          	endbr64
    31d4:	41 57                	push   %r15
    31d6:	41 56                	push   %r14
    31d8:	41 55                	push   %r13
    31da:	41 54                	push   %r12
    31dc:	55                   	push   %rbp
    31dd:	53                   	push   %rbx
    31de:	48 89 fb             	mov    %rdi,%rbx
    31e1:	48 83 ec 18          	sub    $0x18,%rsp
    31e5:	8b 0f                	mov    (%rdi),%ecx
    31e7:	48 89 3c 24          	mov    %rdi,(%rsp)
    31eb:	44 6b e1 1a          	imul   $0x1a,%ecx,%r12d
    31ef:	89 4c 24 0c          	mov    %ecx,0xc(%rsp)
    31f3:	4d 63 e4             	movslq %r12d,%r12
    31f6:	4c 89 e7             	mov    %r12,%rdi
    31f9:	e8 22 e0 ff ff       	call   1220 <malloc@plt>
    31fe:	48 8b 5b 08          	mov    0x8(%rbx),%rbx
    3202:	48 85 c0             	test   %rax,%rax
    3205:	0f 84 dc 01 00 00    	je     33e7 <stringify_program+0x217>
    320b:	8b 4c 24 0c          	mov    0xc(%rsp),%ecx
    320f:	49 89 c7             	mov    %rax,%r15
    3212:	48 c7 c0 ff ff ff ff 	mov    $0xffffffffffffffff,%rax
    3219:	85 c9                	test   %ecx,%ecx
    321b:	0f 8e a7 00 00 00    	jle    32c8 <stringify_program+0xf8>
    3221:	31 ed                	xor    %ebp,%ebp
    3223:	45 31 f6             	xor    %r14d,%r14d
    3226:	4c 8d 2d af 1c 00 00 	lea    0x1caf(%rip),%r13        # 4edc <__PRETTY_FUNCTION__.0+0x3c>
    322d:	0f 1f 00             	nopl   (%rax)
    3230:	8b 33                	mov    (%rbx),%esi
    3232:	48 8d 15 c7 37 00 00 	lea    0x37c7(%rip),%rdx        # 6a00 <imeta>
    3239:	31 c0                	xor    %eax,%eax
    323b:	eb 13                	jmp    3250 <stringify_program+0x80>
    323d:	0f 1f 00             	nopl   (%rax)
    3240:	83 c0 01             	add    $0x1,%eax
    3243:	48 83 c2 10          	add    $0x10,%rdx
    3247:	83 f8 32             	cmp    $0x32,%eax
    324a:	0f 84 60 01 00 00    	je     33b0 <stringify_program+0x1e0>
    3250:	3b 32                	cmp    (%rdx),%esi
    3252:	75 ec                	jne    3240 <stringify_program+0x70>
    3254:	48 98                	cltq
    3256:	48 8d 3d a3 37 00 00 	lea    0x37a3(%rip),%rdi        # 6a00 <imeta>
    325d:	48 c1 e0 04          	shl    $0x4,%rax
    3261:	4c 8b 44 07 08       	mov    0x8(%rdi,%rax,1),%r8
    3266:	83 7b 10 05          	cmpl   $0x5,0x10(%rbx)
    326a:	77 44                	ja     32b0 <stringify_program+0xe0>
    326c:	8b 43 10             	mov    0x10(%rbx),%eax
    326f:	49 63 44 85 00       	movslq 0x0(%r13,%rax,4),%rax
    3274:	4c 01 e8             	add    %r13,%rax
    3277:	3e ff e0             	notrack jmp *%rax
    327a:	66 0f 1f 44 00 00    	nopw   0x0(%rax,%rax,1)
    3280:	48 63 c5             	movslq %ebp,%rax
    3283:	48 8d 0d 77 18 00 00 	lea    0x1877(%rip),%rcx        # 4b01 <_IO_stdin_used+0xb01>
    328a:	be 02 00 00 00       	mov    $0x2,%esi
    328f:	49 39 c4             	cmp    %rax,%r12
    3292:	48 89 c2             	mov    %rax,%rdx
    3295:	49 8d 3c 07          	lea    (%r15,%rax,1),%rdi
    3299:	49 0f 43 d4          	cmovae %r12,%rdx
    329d:	83 c5 06             	add    $0x6,%ebp
    32a0:	48 29 c2             	sub    %rax,%rdx
    32a3:	31 c0                	xor    %eax,%eax
    32a5:	e8 e6 df ff ff       	call   1290 <__sprintf_chk@plt>
    32aa:	48 8b 04 24          	mov    (%rsp),%rax
    32ae:	8b 08                	mov    (%rax),%ecx
    32b0:	41 83 c6 01          	add    $0x1,%r14d
    32b4:	48 83 c3 28          	add    $0x28,%rbx
    32b8:	41 39 ce             	cmp    %ecx,%r14d
    32bb:	0f 8c 6f ff ff ff    	jl     3230 <stringify_program+0x60>
    32c1:	48 63 c5             	movslq %ebp,%rax
    32c4:	48 83 e8 01          	sub    $0x1,%rax
    32c8:	41 c6 04 07 00       	movb   $0x0,(%r15,%rax,1)
    32cd:	48 83 c4 18          	add    $0x18,%rsp
    32d1:	4c 89 f8             	mov    %r15,%rax
    32d4:	5b                   	pop    %rbx
    32d5:	5d                   	pop    %rbp
    32d6:	41 5c                	pop    %r12
    32d8:	41 5d                	pop    %r13
    32da:	41 5e                	pop    %r14
    32dc:	41 5f                	pop    %r15
    32de:	c3                   	ret
    32df:	90                   	nop
    32e0:	48 63 c5             	movslq %ebp,%rax
    32e3:	44 8b 4b 18          	mov    0x18(%rbx),%r9d
    32e7:	48 8d 0d ea 17 00 00 	lea    0x17ea(%rip),%rcx        # 4ad8 <_IO_stdin_used+0xad8>
    32ee:	49 39 c4             	cmp    %rax,%r12
    32f1:	48 89 c2             	mov    %rax,%rdx
    32f4:	49 8d 3c 07          	lea    (%r15,%rax,1),%rdi
    32f8:	49 0f 43 d4          	cmovae %r12,%rdx
    32fc:	48 29 c2             	sub    %rax,%rdx
    32ff:	8b 43 1c             	mov    0x1c(%rbx),%eax
    3302:	50                   	push   %rax
    3303:	ff 73 20             	push   0x20(%rbx)
    3306:	be 02 00 00 00       	mov    $0x2,%esi
    330b:	31 c0                	xor    %eax,%eax
    330d:	e8 7e df ff ff       	call   1290 <__sprintf_chk@plt>
    3312:	01 c5                	add    %eax,%ebp
    3314:	48 8b 44 24 10       	mov    0x10(%rsp),%rax
    3319:	8b 08                	mov    (%rax),%ecx
    331b:	58                   	pop    %rax
    331c:	5a                   	pop    %rdx
    331d:	eb 91                	jmp    32b0 <stringify_program+0xe0>
    331f:	90                   	nop
    3320:	48 63 c5             	movslq %ebp,%rax
    3323:	44 8b 4b 18          	mov    0x18(%rbx),%r9d
    3327:	48 8d 0d 7e 17 00 00 	lea    0x177e(%rip),%rcx        # 4aac <_IO_stdin_used+0xaac>
    332e:	49 39 c4             	cmp    %rax,%r12
    3331:	48 89 c2             	mov    %rax,%rdx
    3334:	49 8d 3c 07          	lea    (%r15,%rax,1),%rdi
    3338:	49 0f 43 d4          	cmovae %r12,%rdx
    333c:	48 29 c2             	sub    %rax,%rdx
    333f:	8b 43 20             	mov    0x20(%rbx),%eax
    3342:	50                   	push   %rax
    3343:	8b 43 1c             	mov    0x1c(%rbx),%eax
    3346:	50                   	push   %rax
    3347:	eb bd                	jmp    3306 <stringify_program+0x136>
    3349:	0f 1f 80 00 00 00 00 	nopl   0x0(%rax)
    3350:	48 63 c5             	movslq %ebp,%rax
    3353:	44 8b 4b 18          	mov    0x18(%rbx),%r9d
    3357:	48 8d 0d 91 17 00 00 	lea    0x1791(%rip),%rcx        # 4aef <_IO_stdin_used+0xaef>
    335e:	49 39 c4             	cmp    %rax,%r12
    3361:	48 89 c2             	mov    %rax,%rdx
    3364:	49 8d 3c 07          	lea    (%r15,%rax,1),%rdi
    3368:	49 0f 43 d4          	cmovae %r12,%rdx
    336c:	48 83 ec 08          	sub    $0x8,%rsp
    3370:	ff 73 20             	push   0x20(%rbx)
    3373:	48 29 c2             	sub    %rax,%rdx
    3376:	eb 8e                	jmp    3306 <stringify_program+0x136>
    3378:	0f 1f 84 00 00 00 00 	nopl   0x0(%rax,%rax,1)
    337f:	00 
    3380:	48 63 c5             	movslq %ebp,%rax
    3383:	44 8b 4b 18          	mov    0x18(%rbx),%r9d
    3387:	48 8d 0d 34 17 00 00 	lea    0x1734(%rip),%rcx        # 4ac2 <_IO_stdin_used+0xac2>
    338e:	ff 73 20             	push   0x20(%rbx)
    3391:	49 39 c4             	cmp    %rax,%r12
    3394:	48 89 c2             	mov    %rax,%rdx
    3397:	49 8d 3c 07          	lea    (%r15,%rax,1),%rdi
    339b:	49 0f 43 d4          	cmovae %r12,%rdx
    339f:	48 29 c2             	sub    %rax,%rdx
    33a2:	8b 43 1c             	mov    0x1c(%rbx),%eax
    33a5:	50                   	push   %rax
    33a6:	e9 5b ff ff ff       	jmp    3306 <stringify_program+0x136>
    33ab:	0f 1f 44 00 00       	nopl   0x0(%rax,%rax,1)
    33b0:	45 31 c0             	xor    %r8d,%r8d
    33b3:	e9 ae fe ff ff       	jmp    3266 <stringify_program+0x96>
    33b8:	0f 1f 84 00 00 00 00 	nopl   0x0(%rax,%rax,1)
    33bf:	00 
    33c0:	48 8b 0d 59 3c 00 00 	mov    0x3c59(%rip),%rcx        # 7020 <stderr@GLIBC_2.2.5>
    33c7:	ba 2a 00 00 00       	mov    $0x2a,%edx
    33cc:	be 01 00 00 00       	mov    $0x1,%esi
    33d1:	48 8d 3d 78 14 00 00 	lea    0x1478(%rip),%rdi        # 4850 <_IO_stdin_used+0x850>
    33d8:	e8 83 de ff ff       	call   1260 <fwrite@plt>
    33dd:	bf ff ff ff ff       	mov    $0xffffffff,%edi
    33e2:	e8 69 de ff ff       	call   1250 <exit@plt>
    33e7:	48 8d 0d 32 1b 00 00 	lea    0x1b32(%rip),%rcx        # 4f20 <__PRETTY_FUNCTION__.2>
    33ee:	ba 06 01 00 00       	mov    $0x106,%edx
    33f3:	48 8d 35 92 16 00 00 	lea    0x1692(%rip),%rsi        # 4a8c <_IO_stdin_used+0xa8c>
    33fa:	48 8d 3d 07 17 00 00 	lea    0x1707(%rip),%rdi        # 4b08 <_IO_stdin_used+0xb08>
    3401:	e8 ca dd ff ff       	call   11d0 <__assert_fail@plt>
    3406:	66 2e 0f 1f 84 00 00 	cs nopw 0x0(%rax,%rax,1)
    340d:	00 00 00 

0000000000003410 <processor_registers_print>:
    3410:	f3 0f 1e fa          	endbr64
    3414:	41 56                	push   %r14
    3416:	49 89 fe             	mov    %rdi,%r14
    3419:	41 55                	push   %r13
    341b:	4c 8d 2d 1e 3c 00 00 	lea    0x3c1e(%rip),%r13        # 7040 <prev_rs.1>
    3422:	41 54                	push   %r12
    3424:	55                   	push   %rbp
    3425:	53                   	push   %rbx
    3426:	48 8b 7f 50          	mov    0x50(%rdi),%rdi
    342a:	31 db                	xor    %ebx,%ebx
    342c:	e8 ff f4 ff ff       	call   2930 <registers_getpc>
    3431:	48 8d 35 d2 16 00 00 	lea    0x16d2(%rip),%rsi        # 4b0a <_IO_stdin_used+0xb0a>
    3438:	bf 02 00 00 00       	mov    $0x2,%edi
    343d:	89 c2                	mov    %eax,%edx
    343f:	31 c0                	xor    %eax,%eax
    3441:	e8 fa dd ff ff       	call   1240 <__printf_chk@plt>
    3446:	eb 12                	jmp    345a <processor_registers_print+0x4a>
    3448:	0f 1f 84 00 00 00 00 	nopl   0x0(%rax,%rax,1)
    344f:	00 
    3450:	48 83 c3 01          	add    $0x1,%rbx
    3454:	48 83 fb 20          	cmp    $0x20,%rbx
    3458:	74 4e                	je     34a8 <processor_registers_print+0x98>
    345a:	49 8b 7e 50          	mov    0x50(%r14),%rdi
    345e:	89 de                	mov    %ebx,%esi
    3460:	e8 ab f4 ff ff       	call   2910 <registers_getreg>
    3465:	48 89 c5             	mov    %rax,%rbp
    3468:	49 39 44 dd 00       	cmp    %rax,0x0(%r13,%rbx,8)
    346d:	74 e1                	je     3450 <processor_registers_print+0x40>
    346f:	49 8b 7e 50          	mov    0x50(%r14),%rdi
    3473:	89 de                	mov    %ebx,%esi
    3475:	e8 96 f4 ff ff       	call   2910 <registers_getreg>
    347a:	89 da                	mov    %ebx,%edx
    347c:	bf 02 00 00 00       	mov    $0x2,%edi
    3481:	48 63 db             	movslq %ebx,%rbx
    3484:	48 89 c1             	mov    %rax,%rcx
    3487:	48 8d 35 87 16 00 00 	lea    0x1687(%rip),%rsi        # 4b15 <_IO_stdin_used+0xb15>
    348e:	31 c0                	xor    %eax,%eax
    3490:	e8 ab dd ff ff       	call   1240 <__printf_chk@plt>
    3495:	49 89 6c dd 00       	mov    %rbp,0x0(%r13,%rbx,8)
    349a:	5b                   	pop    %rbx
    349b:	5d                   	pop    %rbp
    349c:	41 5c                	pop    %r12
    349e:	41 5d                	pop    %r13
    34a0:	41 5e                	pop    %r14
    34a2:	c3                   	ret
    34a3:	0f 1f 44 00 00       	nopl   0x0(%rax,%rax,1)
    34a8:	5b                   	pop    %rbx
    34a9:	48 8d 3d 7a 16 00 00 	lea    0x167a(%rip),%rdi        # 4b2a <_IO_stdin_used+0xb2a>
    34b0:	5d                   	pop    %rbp
    34b1:	41 5c                	pop    %r12
    34b3:	41 5d                	pop    %r13
    34b5:	41 5e                	pop    %r14
    34b7:	e9 e4 dc ff ff       	jmp    11a0 <puts@plt>
    34bc:	0f 1f 40 00          	nopl   0x0(%rax)

00000000000034c0 <processor_registers_printall>:
    34c0:	f3 0f 1e fa          	endbr64
    34c4:	41 55                	push   %r13
    34c6:	4c 8d 2d 45 16 00 00 	lea    0x1645(%rip),%r13        # 4b12 <_IO_stdin_used+0xb12>
    34cd:	41 54                	push   %r12
    34cf:	4c 8d 25 6b 16 00 00 	lea    0x166b(%rip),%r12        # 4b41 <_IO_stdin_used+0xb41>
    34d6:	55                   	push   %rbp
    34d7:	48 89 fd             	mov    %rdi,%rbp
    34da:	53                   	push   %rbx
    34db:	31 db                	xor    %ebx,%ebx
    34dd:	48 83 ec 08          	sub    $0x8,%rsp
    34e1:	48 8b 7f 50          	mov    0x50(%rdi),%rdi
    34e5:	e8 46 f4 ff ff       	call   2930 <registers_getpc>
    34ea:	48 8d 35 19 16 00 00 	lea    0x1619(%rip),%rsi        # 4b0a <_IO_stdin_used+0xb0a>
    34f1:	bf 02 00 00 00       	mov    $0x2,%edi
    34f6:	89 c2                	mov    %eax,%edx
    34f8:	31 c0                	xor    %eax,%eax
    34fa:	e8 41 dd ff ff       	call   1240 <__printf_chk@plt>
    34ff:	90                   	nop
    3500:	48 8b 7d 50          	mov    0x50(%rbp),%rdi
    3504:	89 de                	mov    %ebx,%esi
    3506:	e8 05 f4 ff ff       	call   2910 <registers_getreg>
    350b:	89 da                	mov    %ebx,%edx
    350d:	4c 89 e6             	mov    %r12,%rsi
    3510:	bf 02 00 00 00       	mov    $0x2,%edi
    3515:	48 89 c1             	mov    %rax,%rcx
    3518:	31 c0                	xor    %eax,%eax
    351a:	e8 21 dd ff ff       	call   1240 <__printf_chk@plt>
    351f:	83 fb 1f             	cmp    $0x1f,%ebx
    3522:	74 1c                	je     3540 <processor_registers_printall+0x80>
    3524:	4c 89 ee             	mov    %r13,%rsi
    3527:	bf 02 00 00 00       	mov    $0x2,%edi
    352c:	31 c0                	xor    %eax,%eax
    352e:	83 c3 01             	add    $0x1,%ebx
    3531:	e8 0a dd ff ff       	call   1240 <__printf_chk@plt>
    3536:	eb c8                	jmp    3500 <processor_registers_printall+0x40>
    3538:	0f 1f 84 00 00 00 00 	nopl   0x0(%rax,%rax,1)
    353f:	00 
    3540:	48 83 c4 08          	add    $0x8,%rsp
    3544:	bf 0a 00 00 00       	mov    $0xa,%edi
    3549:	5b                   	pop    %rbx
    354a:	5d                   	pop    %rbp
    354b:	41 5c                	pop    %r12
    354d:	41 5d                	pop    %r13
    354f:	e9 2c dc ff ff       	jmp    1180 <putchar@plt>
    3554:	66 66 2e 0f 1f 84 00 	data16 cs nopw 0x0(%rax,%rax,1)
    355b:	00 00 00 00 
    355f:	90                   	nop

0000000000003560 <processor_memory_print>:
    3560:	f3 0f 1e fa          	endbr64
    3564:	41 56                	push   %r14
    3566:	41 55                	push   %r13
    3568:	41 54                	push   %r12
    356a:	55                   	push   %rbp
    356b:	48 89 fd             	mov    %rdi,%rbp
    356e:	53                   	push   %rbx
    356f:	48 8b 7f 58          	mov    0x58(%rdi),%rdi
    3573:	e8 38 ec ff ff       	call   21b0 <memory_getsize>
    3578:	48 8d 35 cd 15 00 00 	lea    0x15cd(%rip),%rsi        # 4b4c <_IO_stdin_used+0xb4c>
    357f:	bf 02 00 00 00       	mov    $0x2,%edi
    3584:	48 89 c3             	mov    %rax,%rbx
    3587:	31 c0                	xor    %eax,%eax
    3589:	e8 b2 dc ff ff       	call   1240 <__printf_chk@plt>
    358e:	48 85 db             	test   %rbx,%rbx
    3591:	74 5d                	je     35f0 <processor_memory_print+0x90>
    3593:	45 31 ed             	xor    %r13d,%r13d
    3596:	45 31 f6             	xor    %r14d,%r14d
    3599:	4c 8d 25 b5 15 00 00 	lea    0x15b5(%rip),%r12        # 4b55 <_IO_stdin_used+0xb55>
    35a0:	48 8b 7d 58          	mov    0x58(%rbp),%rdi
    35a4:	4c 89 f6             	mov    %r14,%rsi
    35a7:	e8 14 ec ff ff       	call   21c0 <memory_getbyte>
    35ac:	84 c0                	test   %al,%al
    35ae:	74 18                	je     35c8 <processor_memory_print+0x68>
    35b0:	0f b6 d0             	movzbl %al,%edx
    35b3:	4c 89 e6             	mov    %r12,%rsi
    35b6:	bf 02 00 00 00       	mov    $0x2,%edi
    35bb:	31 c0                	xor    %eax,%eax
    35bd:	e8 7e dc ff ff       	call   1240 <__printf_chk@plt>
    35c2:	41 bd 01 00 00 00    	mov    $0x1,%r13d
    35c8:	49 83 c6 01          	add    $0x1,%r14
    35cc:	4c 39 f3             	cmp    %r14,%rbx
    35cf:	75 cf                	jne    35a0 <processor_memory_print+0x40>
    35d1:	4d 85 ed             	test   %r13,%r13
    35d4:	74 1a                	je     35f0 <processor_memory_print+0x90>
    35d6:	5b                   	pop    %rbx
    35d7:	bf 0a 00 00 00       	mov    $0xa,%edi
    35dc:	5d                   	pop    %rbp
    35dd:	41 5c                	pop    %r12
    35df:	41 5d                	pop    %r13
    35e1:	41 5e                	pop    %r14
    35e3:	e9 98 db ff ff       	jmp    1180 <putchar@plt>
    35e8:	0f 1f 84 00 00 00 00 	nopl   0x0(%rax,%rax,1)
    35ef:	00 
    35f0:	48 8d 35 62 15 00 00 	lea    0x1562(%rip),%rsi        # 4b59 <_IO_stdin_used+0xb59>
    35f7:	bf 02 00 00 00       	mov    $0x2,%edi
    35fc:	31 c0                	xor    %eax,%eax
    35fe:	e8 3d dc ff ff       	call   1240 <__printf_chk@plt>
    3603:	eb d1                	jmp    35d6 <processor_memory_print+0x76>
    3605:	66 66 2e 0f 1f 84 00 	data16 cs nopw 0x0(%rax,%rax,1)
    360c:	00 00 00 00 

0000000000003610 <processor_cache_print>:
    3610:	f3 0f 1e fa          	endbr64
    3614:	41 54                	push   %r12
    3616:	55                   	push   %rbp
    3617:	48 89 fd             	mov    %rdi,%rbp
    361a:	53                   	push   %rbx
    361b:	48 8b 7f 60          	mov    0x60(%rdi),%rdi
    361f:	e8 4c e1 ff ff       	call   1770 <cache_statistics>
    3624:	48 8d 3d 49 15 00 00 	lea    0x1549(%rip),%rdi        # 4b74 <_IO_stdin_used+0xb74>
    362b:	49 89 d4             	mov    %rdx,%r12
    362e:	48 89 c3             	mov    %rax,%rbx
    3631:	e8 6a db ff ff       	call   11a0 <puts@plt>
    3636:	48 8b 4d 38          	mov    0x38(%rbp),%rcx
    363a:	48 8b 55 40          	mov    0x40(%rbp),%rdx
    363e:	31 c0                	xor    %eax,%eax
    3640:	48 8d 35 39 12 00 00 	lea    0x1239(%rip),%rsi        # 4880 <_IO_stdin_used+0x880>
    3647:	bf 02 00 00 00       	mov    $0x2,%edi
    364c:	e8 ef db ff ff       	call   1240 <__printf_chk@plt>
    3651:	48 8d 3d 2c 15 00 00 	lea    0x152c(%rip),%rdi        # 4b84 <_IO_stdin_used+0xb84>
    3658:	e8 43 db ff ff       	call   11a0 <puts@plt>
    365d:	4c 89 e1             	mov    %r12,%rcx
    3660:	48 89 da             	mov    %rbx,%rdx
    3663:	bf 02 00 00 00       	mov    $0x2,%edi
    3668:	48 8d 35 39 12 00 00 	lea    0x1239(%rip),%rsi        # 48a8 <_IO_stdin_used+0x8a8>
    366f:	31 c0                	xor    %eax,%eax
    3671:	e8 ca db ff ff       	call   1240 <__printf_chk@plt>
    3676:	66 0f ef c0          	pxor   %xmm0,%xmm0
    367a:	48 85 db             	test   %rbx,%rbx
    367d:	74 2d                	je     36ac <processor_cache_print+0x9c>
    367f:	78 4f                	js     36d0 <processor_cache_print+0xc0>
    3681:	66 0f ef c9          	pxor   %xmm1,%xmm1
    3685:	f2 48 0f 2a cb       	cvtsi2sd %rbx,%xmm1
    368a:	4d 85 e4             	test   %r12,%r12
    368d:	78 5f                	js     36ee <processor_cache_print+0xde>
    368f:	66 0f ef d2          	pxor   %xmm2,%xmm2
    3693:	f2 49 0f 2a d4       	cvtsi2sd %r12,%xmm2
    3698:	66 0f 28 c1          	movapd %xmm1,%xmm0
    369c:	f2 0f 5c c2          	subsd  %xmm2,%xmm0
    36a0:	f2 0f 5e c1          	divsd  %xmm1,%xmm0
    36a4:	f2 0f 59 05 8c 18 00 	mulsd  0x188c(%rip),%xmm0        # 4f38 <__PRETTY_FUNCTION__.3+0x6>
    36ab:	00 
    36ac:	5b                   	pop    %rbx
    36ad:	bf 02 00 00 00       	mov    $0x2,%edi
    36b2:	5d                   	pop    %rbp
    36b3:	b8 01 00 00 00       	mov    $0x1,%eax
    36b8:	48 8d 35 d2 14 00 00 	lea    0x14d2(%rip),%rsi        # 4b91 <_IO_stdin_used+0xb91>
    36bf:	41 5c                	pop    %r12
    36c1:	e9 7a db ff ff       	jmp    1240 <__printf_chk@plt>
    36c6:	66 2e 0f 1f 84 00 00 	cs nopw 0x0(%rax,%rax,1)
    36cd:	00 00 00 
    36d0:	48 89 d8             	mov    %rbx,%rax
    36d3:	83 e3 01             	and    $0x1,%ebx
    36d6:	66 0f ef c9          	pxor   %xmm1,%xmm1
    36da:	48 d1 e8             	shr    $1,%rax
    36dd:	48 09 d8             	or     %rbx,%rax
    36e0:	f2 48 0f 2a c8       	cvtsi2sd %rax,%xmm1
    36e5:	f2 0f 58 c9          	addsd  %xmm1,%xmm1
    36e9:	4d 85 e4             	test   %r12,%r12
    36ec:	79 a1                	jns    368f <processor_cache_print+0x7f>
    36ee:	4c 89 e0             	mov    %r12,%rax
    36f1:	41 83 e4 01          	and    $0x1,%r12d
    36f5:	66 0f ef d2          	pxor   %xmm2,%xmm2
    36f9:	48 d1 e8             	shr    $1,%rax
    36fc:	4c 09 e0             	or     %r12,%rax
    36ff:	f2 48 0f 2a d0       	cvtsi2sd %rax,%xmm2
    3704:	f2 0f 58 d2          	addsd  %xmm2,%xmm2
    3708:	eb 8e                	jmp    3698 <processor_cache_print+0x88>
    370a:	66 0f 1f 44 00 00    	nopw   0x0(%rax,%rax,1)

0000000000003710 <processor_print_exception>:
    3710:	f3 0f 1e fa          	endbr64
    3714:	41 55                	push   %r13
    3716:	48 8d 15 8c 14 00 00 	lea    0x148c(%rip),%rdx        # 4ba9 <_IO_stdin_used+0xba9>
    371d:	41 54                	push   %r12
    371f:	66 48 0f 6e c2       	movq   %rdx,%xmm0
    3724:	48 8d 15 ac 14 00 00 	lea    0x14ac(%rip),%rdx        # 4bd7 <_IO_stdin_used+0xbd7>
    372b:	55                   	push   %rbp
    372c:	53                   	push   %rbx
    372d:	48 83 ec 38          	sub    $0x38,%rsp
    3731:	64 48 8b 04 25 28 00 	mov    %fs:0x28,%rax
    3738:	00 00 
    373a:	48 89 44 24 28       	mov    %rax,0x28(%rsp)
    373f:	48 8d 05 79 14 00 00 	lea    0x1479(%rip),%rax        # 4bbf <_IO_stdin_used+0xbbf>
    3746:	66 48 0f 6e c8       	movq   %rax,%xmm1
    374b:	48 8d 05 92 14 00 00 	lea    0x1492(%rip),%rax        # 4be4 <_IO_stdin_used+0xbe4>
    3752:	66 0f 6c c1          	punpcklqdq %xmm1,%xmm0
    3756:	66 48 0f 6e d0       	movq   %rax,%xmm2
    375b:	0f 29 04 24          	movaps %xmm0,(%rsp)
    375f:	66 48 0f 6e c2       	movq   %rdx,%xmm0
    3764:	66 0f 6c c2          	punpcklqdq %xmm2,%xmm0
    3768:	0f 29 44 24 10       	movaps %xmm0,0x10(%rsp)
    376d:	83 fe 03             	cmp    $0x3,%esi
    3770:	0f 87 dc 00 00 00    	ja     3852 <processor_print_exception+0x142>
    3776:	89 f6                	mov    %esi,%esi
    3778:	48 89 fd             	mov    %rdi,%rbp
    377b:	31 c0                	xor    %eax,%eax
    377d:	bf 02 00 00 00       	mov    $0x2,%edi
    3782:	48 8b 14 f4          	mov    (%rsp,%rsi,8),%rdx
    3786:	48 8d 35 71 14 00 00 	lea    0x1471(%rip),%rsi        # 4bfe <_IO_stdin_used+0xbfe>
    378d:	31 db                	xor    %ebx,%ebx
    378f:	4c 8d 25 ab 13 00 00 	lea    0x13ab(%rip),%r12        # 4b41 <_IO_stdin_used+0xb41>
    3796:	4c 8d 2d 75 13 00 00 	lea    0x1375(%rip),%r13        # 4b12 <_IO_stdin_used+0xb12>
    379d:	e8 9e da ff ff       	call   1240 <__printf_chk@plt>
    37a2:	48 8b 7d 50          	mov    0x50(%rbp),%rdi
    37a6:	e8 85 f1 ff ff       	call   2930 <registers_getpc>
    37ab:	48 8d 35 58 13 00 00 	lea    0x1358(%rip),%rsi        # 4b0a <_IO_stdin_used+0xb0a>
    37b2:	bf 02 00 00 00       	mov    $0x2,%edi
    37b7:	89 c2                	mov    %eax,%edx
    37b9:	31 c0                	xor    %eax,%eax
    37bb:	e8 80 da ff ff       	call   1240 <__printf_chk@plt>
    37c0:	48 8b 7d 50          	mov    0x50(%rbp),%rdi
    37c4:	89 de                	mov    %ebx,%esi
    37c6:	e8 45 f1 ff ff       	call   2910 <registers_getreg>
    37cb:	89 da                	mov    %ebx,%edx
    37cd:	4c 89 e6             	mov    %r12,%rsi
    37d0:	bf 02 00 00 00       	mov    $0x2,%edi
    37d5:	48 89 c1             	mov    %rax,%rcx
    37d8:	31 c0                	xor    %eax,%eax
    37da:	e8 61 da ff ff       	call   1240 <__printf_chk@plt>
    37df:	83 fb 1f             	cmp    $0x1f,%ebx
    37e2:	74 1c                	je     3800 <processor_print_exception+0xf0>
    37e4:	4c 89 ee             	mov    %r13,%rsi
    37e7:	bf 02 00 00 00       	mov    $0x2,%edi
    37ec:	31 c0                	xor    %eax,%eax
    37ee:	83 c3 01             	add    $0x1,%ebx
    37f1:	e8 4a da ff ff       	call   1240 <__printf_chk@plt>
    37f6:	eb c8                	jmp    37c0 <processor_print_exception+0xb0>
    37f8:	0f 1f 84 00 00 00 00 	nopl   0x0(%rax,%rax,1)
    37ff:	00 
    3800:	bf 0a 00 00 00       	mov    $0xa,%edi
    3805:	e8 76 d9 ff ff       	call   1180 <putchar@plt>
    380a:	48 83 7d 30 00       	cmpq   $0x0,0x30(%rbp)
    380f:	75 1f                	jne    3830 <processor_print_exception+0x120>
    3811:	48 8b 44 24 28       	mov    0x28(%rsp),%rax
    3816:	64 48 2b 04 25 28 00 	sub    %fs:0x28,%rax
    381d:	00 00 
    381f:	75 50                	jne    3871 <processor_print_exception+0x161>
    3821:	48 83 c4 38          	add    $0x38,%rsp
    3825:	5b                   	pop    %rbx
    3826:	5d                   	pop    %rbp
    3827:	41 5c                	pop    %r12
    3829:	41 5d                	pop    %r13
    382b:	c3                   	ret
    382c:	0f 1f 40 00          	nopl   0x0(%rax)
    3830:	48 8b 44 24 28       	mov    0x28(%rsp),%rax
    3835:	64 48 2b 04 25 28 00 	sub    %fs:0x28,%rax
    383c:	00 00 
    383e:	75 31                	jne    3871 <processor_print_exception+0x161>
    3840:	48 83 c4 38          	add    $0x38,%rsp
    3844:	48 89 ef             	mov    %rbp,%rdi
    3847:	5b                   	pop    %rbx
    3848:	5d                   	pop    %rbp
    3849:	41 5c                	pop    %r12
    384b:	41 5d                	pop    %r13
    384d:	e9 be fd ff ff       	jmp    3610 <processor_cache_print>
    3852:	48 8d 0d a7 16 00 00 	lea    0x16a7(%rip),%rcx        # 4f00 <__PRETTY_FUNCTION__.0>
    3859:	ba 82 01 00 00       	mov    $0x182,%edx
    385e:	48 8d 35 27 12 00 00 	lea    0x1227(%rip),%rsi        # 4a8c <_IO_stdin_used+0xa8c>
    3865:	48 8d 3d 64 10 00 00 	lea    0x1064(%rip),%rdi        # 48d0 <_IO_stdin_used+0x8d0>
    386c:	e8 5f d9 ff ff       	call   11d0 <__assert_fail@plt>
    3871:	e8 3a d9 ff ff       	call   11b0 <__stack_chk_fail@plt>

Disassembly of section .fini:

0000000000003878 <_fini>:
    3878:	f3 0f 1e fa          	endbr64
    387c:	48 83 ec 08          	sub    $0x8,%rsp
    3880:	48 83 c4 08          	add    $0x8,%rsp
    3884:	c3                   	ret
